; Listing generated by Microsoft (R) Optimizing Compiler Version 19.38.33133.0 

include listing.inc

INCLUDELIB OLDNAMES

PUBLIC	??_C@_01CLKCMJKC@?5@				; `string'
PUBLIC	??_C@_0L@EOHKDBOA@?5runs?5was?5@		; `string'
PUBLIC	??_C@_0BD@JLMOICOA@?0?5and?5a?5median?5of?5@	; `string'
PUBLIC	??_C@_0CB@LEDKPFDM@?5microseconds?0?5the?5slowest?5took@ ; `string'
PUBLIC	??_C@_0BG@LODDAHGJ@The?5fastest?5run?5took?5@	; `string'
PUBLIC	??_C@_0BE@OOCJLPN@Setting?5verbose?5to?5@	; `string'
PUBLIC	??_C@_0BD@LNHPFNNF@Setting?5trials?5to?5@	; `string'
PUBLIC	??_C@_0BC@LGNLBHBG@?$DN?$DN?$DN?5Row?5masks?5?$DN?$DN?$DN@ ; `string'
PUBLIC	??_C@_04LMAGDJOH@?5?$DN?$DN?$DN@		; `string'
PUBLIC	??_C@_04NLBKAGMI@?$DN?$DN?$DN?5@		; `string'
PUBLIC	??_C@_0BF@MLJEKOKD@?$DN?$DN?$DN?5Column?5masks?5?$DN?$DN?$DN@ ; `string'
PUBLIC	??_C@_0BG@OJFHAFFF@?$DN?$DN?$DN?5Main?5diagonal?5?$DN?$DN?$DN@ ; `string'
PUBLIC	??_C@_0O@GMDIHMFN@?5parallel?5?$DN?$DN?$DN@	; `string'
PUBLIC	??_C@_0BI@PINPCLLK@?$DN?$DN?$DN?5Second?5diagonal?5?$DN?$DN?$DN@ ; `string'
PUBLIC	??_C@_0BF@DHIJMOPI@?5second?5parallel?5?$DN?$DN?$DN@ ; `string'
PUBLIC	??_C@_08LELLDIKP@?$DN?$DN?$DN?$DN?$DN?$DN?$DN?$DN@ ; `string'
PUBLIC	??_C@_0BB@MCHPKFPC@?4?5Doing?5nothing?4@	; `string'
PUBLIC	??_C@_0CA@KOIDLHCL@Size?5must?5be?5at?5least?54?0?5it?5is?5@ ; `string'
PUBLIC	??_C@_0BP@NLGGFHLD@Size?5must?5be?5at?5most?58?0?5it?5is?5@ ; `string'
PUBLIC	?_threats@threats@qns@@3V?$array@_K$0EA@@std@@A	; qns::threats::_threats
PUBLIC	?_row_masks@row_msks@qns@@3V?$array@_K$07@std@@A ; qns::row_msks::_row_masks
PUBLIC	?_col_masks@col_masks@qns@@3V?$array@_K$07@std@@A ; qns::col_masks::_col_masks
PUBLIC	?_Psave@?$_Facetptr@V?$ctype@D@std@@@std@@2PEBVfacet@locale@2@EB ; std::_Facetptr<std::ctype<char> >::_Psave
EXTRN	__imp_?widen@?$ctype@D@std@@QEBADD@Z:PROC
EXTRN	__imp_?_Getcat@?$ctype@D@std@@SA_KPEAPEBVfacet@locale@2@PEBV42@@Z:PROC
EXTRN	__imp_?setf@ios_base@std@@QEAAHHH@Z:PROC
EXTRN	__imp_?getloc@ios_base@std@@QEBA?AVlocale@2@XZ:PROC
EXTRN	__imp_??6?$basic_ostream@DU?$char_traits@D@std@@@std@@QEAAAEAV01@N@Z:PROC
EXTRN	__imp_??6?$basic_ostream@DU?$char_traits@D@std@@@std@@QEAAAEAV01@_K@Z:PROC
EXTRN	__imp_??6?$basic_ostream@DU?$char_traits@D@std@@@std@@QEAAAEAV01@_N@Z:PROC
EXTRN	__imp_??6?$basic_ostream@DU?$char_traits@D@std@@@std@@QEAAAEAV01@P6AAEAVios_base@1@AEAV21@@Z@Z:PROC
EXTRN	??_M@YAXPEAX_K1P6AX0@Z@Z:PROC			; `eh vector destructor iterator'
EXTRN	__imp_?id@?$ctype@D@std@@2V0locale@2@A:QWORD
;	COMDAT ?_Psave@?$_Facetptr@V?$ctype@D@std@@@std@@2PEBVfacet@locale@2@EB
_BSS	SEGMENT
?_Psave@?$_Facetptr@V?$ctype@D@std@@@std@@2PEBVfacet@locale@2@EB DQ 01H DUP (?) ; std::_Facetptr<std::ctype<char> >::_Psave
_BSS	ENDS
?_threats@threats@qns@@3V?$array@_K$0EA@@std@@A DQ 01020408102040ffH ; qns::threats::_threats
	DQ	000102040810a0ffH
	DQ	00000102048850ffH
	DQ	00000001824428ffH
	DQ	00000080412214ffH
	DQ	0000804020110affH
	DQ	00804020100805ffH
	DQ	80402010080402ffH
	DQ	020408102040ff40H
	DQ	0102040810a0ffa0H
	DQ	000102048850ff50H
	DQ	000001824428ff28H
	DQ	000080412214ff14H
	DQ	00804020110aff0aH
	DQ	804020100805ff05H
	DQ	402010080402ff02H
	DQ	0408102040ff4020H
	DQ	02040810a0ffa010H
	DQ	0102048850ff5088H
	DQ	0001824428ff2844H
	DQ	0080412214ff1422H
	DQ	804020110aff0a11H
	DQ	4020100805ff0508H
	DQ	2010080402ff0204H
	DQ	08102040ff402010H
	DQ	040810a0ffa01008H
	DQ	02048850ff508804H
	DQ	01824428ff284482H
	DQ	80412214ff142241H
	DQ	4020110aff0a1120H
	DQ	20100805ff050810H
	DQ	10080402ff020408H
	DQ	102040ff40201008H
	DQ	0810a0ffa0100804H
	DQ	048850ff50880402H
	DQ	824428ff28448201H
	DQ	412214ff14224180H
	DQ	20110aff0a112040H
	DQ	100805ff05081020H
	DQ	080402ff02040810H
	DQ	2040ff4020100804H
	DQ	10a0ffa010080402H
	DQ	8850ff5088040201H
	DQ	4428ff2844820100H
	DQ	2214ff1422418000H
	DQ	110aff0a11204080H
	DQ	0805ff0508102040H
	DQ	0402ff0204081020H
	DQ	40ff402010080402H
	DQ	a0ffa01008040201H
	DQ	50ff508804020100H
	DQ	28ff284482010000H
	DQ	14ff142241800000H
	DQ	0aff0a1120408000H
	DQ	05ff050810204080H
	DQ	02ff020408102040H
	DQ	ff40201008040201H
	DQ	ffa0100804020100H
	DQ	ff50880402010000H
	DQ	ff28448201000000H
	DQ	ff14224180000000H
	DQ	ff0a112040800000H
	DQ	ff05081020408000H
	DQ	ff02040810204080H
?_row_masks@row_msks@qns@@3V?$array@_K$07@std@@A DQ 00000000000000ffH ; qns::row_msks::_row_masks
	DQ	000000000000ff00H
	DQ	0000000000ff0000H
	DQ	00000000ff000000H
	DQ	000000ff00000000H
	DQ	0000ff0000000000H
	DQ	00ff000000000000H
	DQ	ff00000000000000H
?_col_masks@col_masks@qns@@3V?$array@_K$07@std@@A DQ 8080808080808080H ; qns::col_masks::_col_masks
	DQ	4040404040404040H
	DQ	2020202020202020H
	DQ	1010101010101010H
	DQ	0808080808080808H
	DQ	0404040404040404H
	DQ	0202020202020202H
	DQ	0101010101010101H
?sentinel@qns@@3HB DD 0ffffffffH			; qns::sentinel
?row_masks@qns@@3QEB_KEB DQ FLAT:?_row_masks@row_msks@qns@@3V?$array@_K$07@std@@A ; qns::row_masks
??$get_main_diagonal@_K$07@threats@qns@@3V?$array@_K$0P@@std@@B DQ 0000000000000001H ; qns::threats::get_main_diagonal<unsigned __int64,8>
	DQ	0000000000000102H
	DQ	0000000000010204H
	DQ	0000000001020408H
	DQ	0000000102040810H
	DQ	0000010204081020H
	DQ	0001020408102040H
	DQ	0102040810204080H
	DQ	0204081020408000H
	DQ	0408102040800000H
	DQ	0810204080000000H
	DQ	1020408000000000H
	DQ	2040800000000000H
	DQ	4080000000000000H
	DQ	8000000000000000H
?column_masks@qns@@3QEB_KEB DQ FLAT:?_col_masks@col_masks@qns@@3V?$array@_K$07@std@@A ; qns::column_masks
??$get_second_diagonal@_K$07@threats@qns@@3V?$array@_K$0P@@std@@B DQ 0000000000000080H ; qns::threats::get_second_diagonal<unsigned __int64,8>
	DQ	0000000000008040H
	DQ	0000000000804020H
	DQ	0000000080402010H
	DQ	0000008040201008H
	DQ	0000804020100804H
	DQ	0080402010080402H
	DQ	8040201008040201H
	DQ	4020100804020100H
	DQ	2010080402010000H
	DQ	1008040201000000H
	DQ	0804020100000000H
	DQ	0402010000000000H
	DQ	0201000000000000H
	DQ	0100000000000000H
CONST	ENDS
;	COMDAT ??_C@_0BP@NLGGFHLD@Size?5must?5be?5at?5most?58?0?5it?5is?5@
CONST	SEGMENT
??_C@_0BP@NLGGFHLD@Size?5must?5be?5at?5most?58?0?5it?5is?5@ DB 'Size must'
	DB	' be at most 8, it is ', 00H			; `string'
CONST	ENDS
;	COMDAT ??_C@_0CA@KOIDLHCL@Size?5must?5be?5at?5least?54?0?5it?5is?5@
CONST	SEGMENT
??_C@_0CA@KOIDLHCL@Size?5must?5be?5at?5least?54?0?5it?5is?5@ DB 'Size mus'
	DB	't be at least 4, it is ', 00H		; `string'
CONST	ENDS
;	COMDAT ??_C@_0BB@MCHPKFPC@?4?5Doing?5nothing?4@
CONST	SEGMENT
??_C@_0BB@MCHPKFPC@?4?5Doing?5nothing?4@ DB '. Doing nothing.', 00H ; `string'
CONST	ENDS
;	COMDAT ??_C@_08LELLDIKP@?$DN?$DN?$DN?$DN?$DN?$DN?$DN?$DN@
CONST	SEGMENT
??_C@_08LELLDIKP@?$DN?$DN?$DN?$DN?$DN?$DN?$DN?$DN@ DB '========', 00H ; `string'
CONST	ENDS
;	COMDAT ??_C@_0BF@DHIJMOPI@?5second?5parallel?5?$DN?$DN?$DN@
CONST	SEGMENT
??_C@_0BF@DHIJMOPI@?5second?5parallel?5?$DN?$DN?$DN@ DB ' second parallel'
	DB	' ===', 00H					; `string'
CONST	ENDS
;	COMDAT ??_C@_0BI@PINPCLLK@?$DN?$DN?$DN?5Second?5diagonal?5?$DN?$DN?$DN@
CONST	SEGMENT
??_C@_0BI@PINPCLLK@?$DN?$DN?$DN?5Second?5diagonal?5?$DN?$DN?$DN@ DB '=== '
	DB	'Second diagonal ===', 00H			; `string'
CONST	ENDS
;	COMDAT ??_C@_0O@GMDIHMFN@?5parallel?5?$DN?$DN?$DN@
CONST	SEGMENT
??_C@_0O@GMDIHMFN@?5parallel?5?$DN?$DN?$DN@ DB ' parallel ===', 00H ; `string'
CONST	ENDS
;	COMDAT ??_C@_0BG@OJFHAFFF@?$DN?$DN?$DN?5Main?5diagonal?5?$DN?$DN?$DN@
CONST	SEGMENT
??_C@_0BG@OJFHAFFF@?$DN?$DN?$DN?5Main?5diagonal?5?$DN?$DN?$DN@ DB '=== Ma'
	DB	'in diagonal ===', 00H			; `string'
CONST	ENDS
;	COMDAT ??_C@_0BF@MLJEKOKD@?$DN?$DN?$DN?5Column?5masks?5?$DN?$DN?$DN@
CONST	SEGMENT
??_C@_0BF@MLJEKOKD@?$DN?$DN?$DN?5Column?5masks?5?$DN?$DN?$DN@ DB '=== Col'
	DB	'umn masks ===', 00H				; `string'
CONST	ENDS
;	COMDAT ??_C@_04NLBKAGMI@?$DN?$DN?$DN?5@
CONST	SEGMENT
??_C@_04NLBKAGMI@?$DN?$DN?$DN?5@ DB '=== ', 00H		; `string'
CONST	ENDS
;	COMDAT ??_C@_04LMAGDJOH@?5?$DN?$DN?$DN@
CONST	SEGMENT
??_C@_04LMAGDJOH@?5?$DN?$DN?$DN@ DB ' ===', 00H		; `string'
CONST	ENDS
;	COMDAT ??_C@_0BC@LGNLBHBG@?$DN?$DN?$DN?5Row?5masks?5?$DN?$DN?$DN@
CONST	SEGMENT
??_C@_0BC@LGNLBHBG@?$DN?$DN?$DN?5Row?5masks?5?$DN?$DN?$DN@ DB '=== Row ma'
	DB	'sks ===', 00H				; `string'
CONST	ENDS
;	COMDAT ??_C@_0BD@LNHPFNNF@Setting?5trials?5to?5@
CONST	SEGMENT
??_C@_0BD@LNHPFNNF@Setting?5trials?5to?5@ DB 'Setting trials to ', 00H ; `string'
CONST	ENDS
;	COMDAT ??_C@_0BE@OOCJLPN@Setting?5verbose?5to?5@
CONST	SEGMENT
??_C@_0BE@OOCJLPN@Setting?5verbose?5to?5@ DB 'Setting verbose to ', 00H ; `string'
CONST	ENDS
;	COMDAT ??_C@_0BG@LODDAHGJ@The?5fastest?5run?5took?5@
CONST	SEGMENT
??_C@_0BG@LODDAHGJ@The?5fastest?5run?5took?5@ DB 'The fastest run took ', 00H ; `string'
CONST	ENDS
;	COMDAT ??_C@_0CB@LEDKPFDM@?5microseconds?0?5the?5slowest?5took@
CONST	SEGMENT
??_C@_0CB@LEDKPFDM@?5microseconds?0?5the?5slowest?5took@ DB ' microsecond'
	DB	's, the slowest took ', 00H			; `string'
CONST	ENDS
;	COMDAT ??_C@_0BD@JLMOICOA@?0?5and?5a?5median?5of?5@
CONST	SEGMENT
??_C@_0BD@JLMOICOA@?0?5and?5a?5median?5of?5@ DB ', and a median of ', 00H ; `string'
CONST	ENDS
;	COMDAT ??_C@_0L@EOHKDBOA@?5runs?5was?5@
CONST	SEGMENT
??_C@_0L@EOHKDBOA@?5runs?5was?5@ DB ' runs was ', 00H	; `string'
CONST	ENDS
;	COMDAT ??_C@_01CLKCMJKC@?5@
CONST	SEGMENT
??_C@_01CLKCMJKC@?5@ DB ' ', 00H			; `string'
CONST	ENDS
PUBLIC	??$forward@AEAPEAN@std@@YAAEAPEANAEAPEAN@Z	; std::forward<double * &>
PUBLIC	??$_Med3_unchecked@PEANU?$less@X@std@@@std@@YAXPEAN00U?$less@X@0@@Z ; std::_Med3_unchecked<double *,std::less<void> >
PUBLIC	??$_Pop_heap_hole_unchecked@PEANNU?$less@X@std@@@std@@YAXPEAN00$$QEANU?$less@X@0@@Z ; std::_Pop_heap_hole_unchecked<double *,double,std::less<void> >
PUBLIC	??$_Push_heap_by_index@PEANNU?$less@X@std@@@std@@YAXPEAN_J1$$QEANU?$less@X@0@@Z ; std::_Push_heap_by_index<double *,double,std::less<void> >
PUBLIC	??$_Copy_backward_memmove@PEANPEAN@std@@YAPEANPEAN00@Z ; std::_Copy_backward_memmove<double *,double *>
PUBLIC	??$construct_at@NN$0A@@std@@YAPEANQEAN$$QEAN@Z	; std::construct_at<double,double,0>
PUBLIC	??$?0AEAPEANAEAPEAN$0A@@?$pair@PEANPEAN@std@@QEAA@AEAPEAN0@Z ; std::pair<double *,double *>::pair<double *,double *><double * &,double * &,0>
PUBLIC	??$_Next_iter@PEAN@std@@YAPEANPEAN@Z		; std::_Next_iter<double *>
PUBLIC	??$_Guess_median_unchecked@PEANU?$less@X@std@@@std@@YAXPEAN00U?$less@X@0@@Z ; std::_Guess_median_unchecked<double *,std::less<void> >
PUBLIC	??$_Prev_iter@PEAN@std@@YAPEANPEAN@Z		; std::_Prev_iter<double *>
PUBLIC	??$_Pop_heap_unchecked@PEANU?$less@X@std@@@std@@YAXPEAN0U?$less@X@0@@Z ; std::_Pop_heap_unchecked<double *,std::less<void> >
PUBLIC	??$_Pop_heap_hole_by_index@PEANNU?$less@X@std@@@std@@YAXPEAN_J1$$QEANU?$less@X@0@@Z ; std::_Pop_heap_hole_by_index<double *,double,std::less<void> >
PUBLIC	??$_Move_backward_unchecked@PEANPEAN@std@@YAPEANPEAN00@Z ; std::_Move_backward_unchecked<double *,double *>
PUBLIC	??$?RAEANAEAN@?$less@X@std@@QEBA_NAEAN0@Z	; std::less<void>::operator()<double &,double &>
PUBLIC	??$construct_at@NAEBN$0A@@std@@YAPEANQEANAEBN@Z	; std::construct_at<double,double const &,0>
PUBLIC	??$addressof@N@std@@YAPEANAEAN@Z		; std::addressof<double>
PUBLIC	??$construct@NN@?$_Default_allocator_traits@V?$allocator@N@std@@@std@@SAXAEAV?$allocator@N@1@QEAN$$QEAN@Z ; std::_Default_allocator_traits<std::allocator<double> >::construct<double,double>
PUBLIC	??$forward@N@std@@YA$$QEANAEAN@Z		; std::forward<double>
PUBLIC	??$to_address@N@std@@YAPEANQEAN@Z		; std::to_address<double>
PUBLIC	??$_Partition_by_median_guess_unchecked@PEANU?$less@X@std@@@std@@YA?AU?$pair@PEANPEAN@0@PEAN0U?$less@X@0@@Z ; std::_Partition_by_median_guess_unchecked<double *,std::less<void> >
PUBLIC	??$_Sort_heap_unchecked@PEANU?$less@X@std@@@std@@YAXPEAN0U?$less@X@0@@Z ; std::_Sort_heap_unchecked<double *,std::less<void> >
PUBLIC	??$_Make_heap_unchecked@PEANU?$less@X@std@@@std@@YAXPEAN0U?$less@X@0@@Z ; std::_Make_heap_unchecked<double *,std::less<void> >
PUBLIC	??$_Insertion_sort_unchecked@PEANU?$less@X@std@@@std@@YAPEANQEAN0U?$less@X@0@@Z ; std::_Insertion_sort_unchecked<double *,std::less<void> >
PUBLIC	??$to_address@$$CBH@std@@YAPEBHQEBH@Z		; std::to_address<int const >
PUBLIC	??$_Reallocate_grow_by@V<lambda_1>@?4???$_Resize_and_overwrite@V<lambda_1>@?1???$to_string@DU?$char_traits@D@std@@V?$allocator@D@2@@?$bitset@$07@std@@QEBA?AV?$basic_string@DU?$char_traits@D@std@@V?$allocator@D@2@@3@DD@Z@@?$basic_string@DU?$char_traits@D@std@@V?$allocator@D@2@@std@@QEAAX_KV1?1???$to_string@DU?$char_traits@D@std@@V?$allocator@D@2@@?$bitset@$07@3@QEBA?AV23@DD@Z@@Z@$$V@?$basic_string@DU?$char_traits@D@std@@V?$allocator@D@2@@std@@AEAAAEAV01@_KV<lambda_1>@?4???$_Resize_and_overwrite@V<lambda_1>@?1???$to_string@DU?$char_traits@D@std@@V?$allocator@D@2@@?$bitset@$07@std@@QEBA?AV?$basic_string@DU?$char_traits@D@std@@V?$allocator@D@2@@3@DD@Z@@01@QEAAX0V2?1???$to_string@DU?$char_traits@D@std@@V?$allocator@D@2@@?$bitset@$07@1@QEBA?AV01@DD@Z@@Z@@Z ; std::basic_string<char,std::char_traits<char>,std::allocator<char> >::_Reallocate_grow_by<`std::basic_string<char,std::char_traits<char>,std::allocator<char> >::_Resize_and_overwrite<`std::bitset<8>::to_string<char,std::char_traits<char>,std::allocator<char> >'::`2'::<lambda_1> >'::`5'::<lambda_1> >
PUBLIC	??$_Refancy@PEAH$0A@@std@@YAPEAHPEAH@Z		; std::_Refancy<int *,0>
PUBLIC	??$_Get_size_of_n@$07@std@@YA_K_K@Z		; std::_Get_size_of_n<8>
PUBLIC	??$construct@NAEBN@?$_Default_allocator_traits@V?$allocator@N@std@@@std@@SAXAEAV?$allocator@N@1@QEANAEBN@Z ; std::_Default_allocator_traits<std::allocator<double> >::construct<double,double const &>
PUBLIC	??$_Construct_in_place@NAEBN@std@@YAXAEANAEBN@Z	; std::_Construct_in_place<double,double const &>
PUBLIC	??$_Emplace_back@N@?$_Uninitialized_backout_al@V?$allocator@N@std@@@std@@QEAAX$$QEAN@Z ; std::_Uninitialized_backout_al<std::allocator<double> >::_Emplace_back<double>
PUBLIC	??$_To_address@PEAN@std@@YA?A_PAEBQEAN@Z	; std::_To_address<double *>
PUBLIC	??$_Copy_memmove@PEANPEAN@std@@YAPEANPEAN00@Z	; std::_Copy_memmove<double *,double *>
PUBLIC	??$move@AEAN@std@@YA$$QEANAEAN@Z		; std::move<double &>
PUBLIC	??$_Sort_unchecked@PEANU?$less@X@std@@@std@@YAXPEAN0_JU?$less@X@0@@Z ; std::_Sort_unchecked<double *,std::less<void> >
PUBLIC	??$_Unfancy@N@std@@YAPEANPEAN@Z			; std::_Unfancy<double>
PUBLIC	??$_Adl_verify_range@V?$_Vector_iterator@V?$_Vector_val@U?$_Simple_types@N@std@@@std@@@std@@V12@@std@@YAXAEBV?$_Vector_iterator@V?$_Vector_val@U?$_Simple_types@N@std@@@std@@@0@0@Z ; std::_Adl_verify_range<std::_Vector_iterator<std::_Vector_val<std::_Simple_types<double> > >,std::_Vector_iterator<std::_Vector_val<std::_Simple_types<double> > > >
PUBLIC	??$forward@PEAH@std@@YA$$QEAPEAHAEAPEAH@Z	; std::forward<int *>
PUBLIC	??$_To_address@PEBH@std@@YA?A_PAEBQEBH@Z	; std::_To_address<int const *>
PUBLIC	??$_Copy_memmove@PEBHPEAH@std@@YAPEAHPEBH0PEAH@Z ; std::_Copy_memmove<int const *,int *>
PUBLIC	??$move@AEAV<lambda_1>@?1???$to_string@DU?$char_traits@D@std@@V?$allocator@D@2@@?$bitset@$07@std@@QEBA?AV?$basic_string@DU?$char_traits@D@std@@V?$allocator@D@2@@3@DD@Z@@std@@YA$$QEAV<lambda_1>@?1???$to_string@DU?$char_traits@D@std@@V?$allocator@D@2@@?$bitset@$07@0@QEBA?AV?$basic_string@DU?$char_traits@D@std@@V?$allocator@D@2@@0@DD@Z@AEAV1?1???$to_string@DU?$char_traits@D@std@@V?$allocator@D@2@@20@QEBA?AV30@DD@Z@@Z ; std::move<`std::bitset<8>::to_string<char,std::char_traits<char>,std::allocator<char> >'::`2'::<lambda_1> &>
PUBLIC	??R<lambda_1>@?4???$_Resize_and_overwrite@V<lambda_1>@?1???$to_string@DU?$char_traits@D@std@@V?$allocator@D@2@@?$bitset@$07@std@@QEBA?AV?$basic_string@DU?$char_traits@D@std@@V?$allocator@D@2@@3@DD@Z@@?$basic_string@DU?$char_traits@D@std@@V?$allocator@D@2@@std@@QEAAX_KV0?1???$to_string@DU?$char_traits@D@std@@V?$allocator@D@2@@?$bitset@$07@2@QEBA?AV12@DD@Z@@Z@QEBA@QEADQEBD0@Z ; `std::basic_string<char,std::char_traits<char>,std::allocator<char> >::_Resize_and_overwrite<`std::bitset<8>::to_string<char,std::char_traits<char>,std::allocator<char> >'::`2'::<lambda_1> >'::`5'::<lambda_1>::operator()
PUBLIC	??$_Resize_and_overwrite@V<lambda_1>@?1???$to_string@DU?$char_traits@D@std@@V?$allocator@D@2@@?$bitset@$07@std@@QEBA?AV?$basic_string@DU?$char_traits@D@std@@V?$allocator@D@2@@3@DD@Z@@?$basic_string@DU?$char_traits@D@std@@V?$allocator@D@2@@std@@QEAAX_KV<lambda_1>@?1???$to_string@DU?$char_traits@D@std@@V?$allocator@D@2@@?$bitset@$07@1@QEBA?AV01@DD@Z@@Z ; std::basic_string<char,std::char_traits<char>,std::allocator<char> >::_Resize_and_overwrite<`std::bitset<8>::to_string<char,std::char_traits<char>,std::allocator<char> >'::`2'::<lambda_1> >
PUBLIC	??$swap@N$0A@@std@@YAXAEAN0@Z			; std::swap<double,0>
PUBLIC	?_Subscript@?$bitset@$07@std@@AEBA_N_K@Z	; std::bitset<8>::_Subscript
PUBLIC	?_Seek_to@?$_Vector_const_iterator@V?$_Vector_val@U?$_Simple_types@H@std@@@std@@@std@@QEAAXPEBH@Z ; std::_Vector_const_iterator<std::_Vector_val<std::_Simple_types<int> > >::_Seek_to
PUBLIC	?allocate@?$allocator@N@std@@QEAAPEAN_K@Z	; std::allocator<double>::allocate
PUBLIC	?_Calculate_growth@?$vector@NV?$allocator@N@std@@@std@@AEBA_K_K@Z ; std::vector<double,std::allocator<double> >::_Calculate_growth
PUBLIC	?_Orphan_range@?$vector@NV?$allocator@N@std@@@std@@AEBAXPEAN0@Z ; std::vector<double,std::allocator<double> >::_Orphan_range
PUBLIC	??0?$_Uninitialized_backout_al@V?$allocator@N@std@@@std@@QEAA@PEANAEAV?$allocator@N@1@@Z ; std::_Uninitialized_backout_al<std::allocator<double> >::_Uninitialized_backout_al<std::allocator<double> >
PUBLIC	??1?$_Uninitialized_backout_al@V?$allocator@N@std@@@std@@QEAA@XZ ; std::_Uninitialized_backout_al<std::allocator<double> >::~_Uninitialized_backout_al<std::allocator<double> >
PUBLIC	?_Release@?$_Uninitialized_backout_al@V?$allocator@N@std@@@std@@QEAAPEANXZ ; std::_Uninitialized_backout_al<std::allocator<double> >::_Release
PUBLIC	?__autoclassinit2@?$_Uninitialized_backout_al@V?$allocator@N@std@@@std@@QEAAX_K@Z ; std::_Uninitialized_backout_al<std::allocator<double> >::__autoclassinit2
PUBLIC	??_G?$vector@HV?$allocator@H@std@@@std@@QEAAPEAXI@Z ; std::vector<int,std::allocator<int> >::`scalar deleting destructor'
PUBLIC	??$_Emplace_reallocate@AEBN@?$vector@NV?$allocator@N@std@@@std@@AEAAPEANQEANAEBN@Z ; std::vector<double,std::allocator<double> >::_Emplace_reallocate<double const &>
PUBLIC	??$_Emplace_back_with_unused_capacity@AEBN@?$vector@NV?$allocator@N@std@@@std@@AEAAAEANAEBN@Z ; std::vector<double,std::allocator<double> >::_Emplace_back_with_unused_capacity<double const &>
PUBLIC	??$forward@AEBN@std@@YAAEBNAEBN@Z		; std::forward<double const &>
PUBLIC	??$_Uninitialized_move@PEANV?$allocator@N@std@@@std@@YAPEANQEAN0PEANAEAV?$allocator@N@0@@Z ; std::_Uninitialized_move<double *,std::allocator<double> >
PUBLIC	??$_Get_unwrapped@AEBQEAN@std@@YA?A_TAEBQEAN@Z	; std::_Get_unwrapped<double * const &>
PUBLIC	??$_Allocate_at_least_helper@V?$allocator@N@std@@@std@@YAPEANAEAV?$allocator@N@0@AEA_K@Z ; std::_Allocate_at_least_helper<std::allocator<double> >
PUBLIC	??$_Pass_fn@U?$less@X@std@@@std@@YA?A_PAEAU?$less@X@0@@Z ; std::_Pass_fn<std::less<void> >
PUBLIC	?_Unwrapped@?$_Vector_iterator@V?$_Vector_val@U?$_Simple_types@N@std@@@std@@@std@@QEBAPEANXZ ; std::_Vector_iterator<std::_Vector_val<std::_Simple_types<double> > >::_Unwrapped
PUBLIC	??$_Get_unwrapped@AEBV?$_Vector_iterator@V?$_Vector_val@U?$_Simple_types@N@std@@@std@@@std@@@std@@YA?A_TAEBV?$_Vector_iterator@V?$_Vector_val@U?$_Simple_types@N@std@@@std@@@0@@Z ; std::_Get_unwrapped<std::_Vector_iterator<std::_Vector_val<std::_Simple_types<double> > > const &>
PUBLIC	??$sort@V?$_Vector_iterator@V?$_Vector_val@U?$_Simple_types@N@std@@@std@@@std@@U?$less@X@2@@std@@YAXV?$_Vector_iterator@V?$_Vector_val@U?$_Simple_types@N@std@@@std@@@0@0U?$less@X@0@@Z ; std::sort<std::_Vector_iterator<std::_Vector_val<std::_Simple_types<double> > >,std::less<void> >
PUBLIC	??$_Seek_wrapped@V?$_Vector_iterator@V?$_Vector_val@U?$_Simple_types@H@std@@@std@@@std@@PEAH@std@@YAXAEAV?$_Vector_iterator@V?$_Vector_val@U?$_Simple_types@H@std@@@std@@@0@$$QEAPEAH@Z ; std::_Seek_wrapped<std::_Vector_iterator<std::_Vector_val<std::_Simple_types<int> > >,int *>
PUBLIC	??$_Copy_unchecked@PEBHPEBHPEAH@std@@YAPEAHPEBH0PEAH@Z ; std::_Copy_unchecked<int const *,int const *,int *>
PUBLIC	??$_Adl_verify_range@V?$_Vector_const_iterator@V?$_Vector_val@U?$_Simple_types@H@std@@@std@@@std@@V12@@std@@YAXAEBV?$_Vector_const_iterator@V?$_Vector_val@U?$_Simple_types@H@std@@@std@@@0@0@Z ; std::_Adl_verify_range<std::_Vector_const_iterator<std::_Vector_val<std::_Simple_types<int> > >,std::_Vector_const_iterator<std::_Vector_val<std::_Simple_types<int> > > >
PUBLIC	??0<lambda_1>@?1???$to_string@DU?$char_traits@D@std@@V?$allocator@D@2@@?$bitset@$07@std@@QEBA?AV?$basic_string@DU?$char_traits@D@std@@V?$allocator@D@2@@2@DD@Z@QEAA@PEBV12@AEBD1@Z ; `std::bitset<8>::to_string<char,std::char_traits<char>,std::allocator<char> >'::`2'::<lambda_1>::<lambda_1>
PUBLIC	??R<lambda_1>@?1???$to_string@DU?$char_traits@D@std@@V?$allocator@D@2@@?$bitset@$07@std@@QEBA?AV?$basic_string@DU?$char_traits@D@std@@V?$allocator@D@2@@2@DD@Z@QEBA@PEAD_K@Z ; `std::bitset<8>::to_string<char,std::char_traits<char>,std::allocator<char> >'::`2'::<lambda_1>::operator()
PUBLIC	??$to_string@DU?$char_traits@D@std@@V?$allocator@D@2@@?$bitset@$07@std@@QEBA?AV?$basic_string@DU?$char_traits@D@std@@V?$allocator@D@2@@1@DD@Z ; std::bitset<8>::to_string<char,std::char_traits<char>,std::allocator<char> >
PUBLIC	??$destroy_at@V?$vector@HV?$allocator@H@std@@@std@@@std@@YAXQEAV?$vector@HV?$allocator@H@std@@@0@@Z ; std::destroy_at<std::vector<int,std::allocator<int> > >
PUBLIC	?_Verify_offset@?$_Vector_const_iterator@V?$_Vector_val@U?$_Simple_types@H@std@@@std@@@std@@QEBAX_J@Z ; std::_Vector_const_iterator<std::_Vector_val<std::_Simple_types<int> > >::_Verify_offset
PUBLIC	?_Unwrapped@?$_Vector_iterator@V?$_Vector_val@U?$_Simple_types@H@std@@@std@@@std@@QEBAPEAHXZ ; std::_Vector_iterator<std::_Vector_val<std::_Simple_types<int> > >::_Unwrapped
PUBLIC	??0?$allocator@N@std@@QEAA@XZ			; std::allocator<double>::allocator<double>
PUBLIC	?_Change_array@?$vector@NV?$allocator@N@std@@@std@@AEAAXQEAN_K1@Z ; std::vector<double,std::allocator<double> >::_Change_array
PUBLIC	??0?$_Vector_val@U?$_Simple_types@N@std@@@std@@QEAA@XZ ; std::_Vector_val<std::_Simple_types<double> >::_Vector_val<std::_Simple_types<double> >
PUBLIC	??$addressof@$$CBV?$_Vector_val@U?$_Simple_types@H@std@@@std@@@std@@YAPEBV?$_Vector_val@U?$_Simple_types@H@std@@@0@AEBV10@@Z ; std::addressof<std::_Vector_val<std::_Simple_types<int> > const >
PUBLIC	??$_Destroy_range@V?$allocator@N@std@@@std@@YAXPEANQEANAEAV?$allocator@N@0@@Z ; std::_Destroy_range<std::allocator<double> >
PUBLIC	??$_Construct@$0A@D@?$basic_string@DU?$char_traits@D@std@@V?$allocator@D@2@@std@@AEAAXD_K@Z ; std::basic_string<char,std::char_traits<char>,std::allocator<char> >::_Construct<0,char>
PUBLIC	??$_Get_size_of_n@$0BI@@std@@YA_K_K@Z		; std::_Get_size_of_n<24>
PUBLIC	??$_Get_size_of_n@$03@std@@YA_K_K@Z		; std::_Get_size_of_n<4>
PUBLIC	??$addressof@V?$_Vector_val@U?$_Simple_types@H@std@@@std@@@std@@YAPEAV?$_Vector_val@U?$_Simple_types@H@std@@@0@AEAV10@@Z ; std::addressof<std::_Vector_val<std::_Simple_types<int> > >
PUBLIC	??$?0$$V@?$_Compressed_pair@V?$allocator@N@std@@V?$_Vector_val@U?$_Simple_types@N@std@@@2@$00@std@@QEAA@U_Zero_then_variadic_args_t@1@@Z ; std::_Compressed_pair<std::allocator<double>,std::_Vector_val<std::_Simple_types<double> >,1>::_Compressed_pair<std::allocator<double>,std::_Vector_val<std::_Simple_types<double> >,1><>
PUBLIC	??$_Emplace_one_at_back@AEBN@?$vector@NV?$allocator@N@std@@@std@@AEAAAEANAEBN@Z ; std::vector<double,std::allocator<double> >::_Emplace_one_at_back<double const &>
PUBLIC	??$_Reallocate@$0A@@?$vector@NV?$allocator@N@std@@@std@@AEAAXAEA_K@Z ; std::vector<double,std::allocator<double> >::_Reallocate<0>
PUBLIC	??$addressof@V?$_Vector_val@U?$_Simple_types@N@std@@@std@@@std@@YAPEAV?$_Vector_val@U?$_Simple_types@N@std@@@0@AEAV10@@Z ; std::addressof<std::_Vector_val<std::_Simple_types<double> > >
PUBLIC	??$sort@V?$_Vector_iterator@V?$_Vector_val@U?$_Simple_types@N@std@@@std@@@std@@@std@@YAXV?$_Vector_iterator@V?$_Vector_val@U?$_Simple_types@N@std@@@std@@@0@0@Z ; std::sort<std::_Vector_iterator<std::_Vector_val<std::_Simple_types<double> > > >
PUBLIC	??$_Get_unwrapped_n@AEAV?$_Vector_iterator@V?$_Vector_val@U?$_Simple_types@H@std@@@std@@@std@@_J@std@@YA?A_TAEAV?$_Vector_iterator@V?$_Vector_val@U?$_Simple_types@H@std@@@std@@@0@_J@Z ; std::_Get_unwrapped_n<std::_Vector_iterator<std::_Vector_val<std::_Simple_types<int> > > &,__int64>
PUBLIC	??$_Idl_distance@V?$_Vector_const_iterator@V?$_Vector_val@U?$_Simple_types@H@std@@@std@@@std@@PEBH@std@@YA?A_PAEBQEBH0@Z ; std::_Idl_distance<std::_Vector_const_iterator<std::_Vector_val<std::_Simple_types<int> > >,int const *>
PUBLIC	?_Unwrapped@?$_Vector_const_iterator@V?$_Vector_val@U?$_Simple_types@H@std@@@std@@@std@@QEBAPEBHXZ ; std::_Vector_const_iterator<std::_Vector_val<std::_Simple_types<int> > >::_Unwrapped
PUBLIC	??$_Get_unwrapped@AEAV?$_Vector_const_iterator@V?$_Vector_val@U?$_Simple_types@H@std@@@std@@@std@@@std@@YA?A_TAEAV?$_Vector_const_iterator@V?$_Vector_val@U?$_Simple_types@H@std@@@std@@@0@@Z ; std::_Get_unwrapped<std::_Vector_const_iterator<std::_Vector_val<std::_Simple_types<int> > > &>
PUBLIC	??$copy@V?$_Vector_const_iterator@V?$_Vector_val@U?$_Simple_types@H@std@@@std@@@std@@V?$_Vector_iterator@V?$_Vector_val@U?$_Simple_types@H@std@@@std@@@2@@std@@YA?AV?$_Vector_iterator@V?$_Vector_val@U?$_Simple_types@H@std@@@std@@@0@V?$_Vector_const_iterator@V?$_Vector_val@U?$_Simple_types@H@std@@@std@@@0@0V10@@Z ; std::copy<std::_Vector_const_iterator<std::_Vector_val<std::_Simple_types<int> > >,std::_Vector_iterator<std::_Vector_val<std::_Simple_types<int> > > >
PUBLIC	??$?6DU?$char_traits@D@std@@$07@std@@YAAEAV?$basic_ostream@DU?$char_traits@D@std@@@0@AEAV10@AEBV?$bitset@$07@0@@Z ; std::operator<<<char,std::char_traits<char>,8>
PUBLIC	??$destroy@V?$vector@HV?$allocator@H@std@@@std@@@?$_Default_allocator_traits@V?$allocator@V?$vector@HV?$allocator@H@std@@@std@@@std@@@std@@SAXAEAV?$allocator@V?$vector@HV?$allocator@H@std@@@std@@@1@QEAV?$vector@HV?$allocator@H@std@@@1@@Z ; std::_Default_allocator_traits<std::allocator<std::vector<int,std::allocator<int> > > >::destroy<std::vector<int,std::allocator<int> > >
PUBLIC	??$_Copy_memmove@PEAHPEAH@std@@YAPEAHPEAH00@Z	; std::_Copy_memmove<int *,int *>
PUBLIC	??$to_address@H@std@@YAPEAHQEAH@Z		; std::to_address<int>
PUBLIC	??$_Fill_zero_memset@PEAH@std@@YAXPEAH_K@Z	; std::_Fill_zero_memset<int *>
PUBLIC	??$_Is_all_bits_zero@H@std@@YA_NAEBH@Z		; std::_Is_all_bits_zero<int>
PUBLIC	??$use_facet@V?$ctype@D@std@@@std@@YAAEBV?$ctype@D@0@AEBVlocale@0@@Z ; std::use_facet<std::ctype<char> >
PUBLIC	?assign@?$_Char_traits@DH@std@@SAPEADQEAD_KD@Z	; std::_Char_traits<char,int>::assign
PUBLIC	?_Get_first@?$_Compressed_pair@V?$allocator@N@std@@V?$_Vector_val@U?$_Simple_types@N@std@@@2@$00@std@@QEAAAEAV?$allocator@N@2@XZ ; std::_Compressed_pair<std::allocator<double>,std::_Vector_val<std::_Simple_types<double> >,1>::_Get_first
PUBLIC	?_Get_first@?$_Compressed_pair@V?$allocator@N@std@@V?$_Vector_val@U?$_Simple_types@N@std@@@2@$00@std@@QEBAAEBV?$allocator@N@2@XZ ; std::_Compressed_pair<std::allocator<double>,std::_Vector_val<std::_Simple_types<double> >,1>::_Get_first
PUBLIC	?assign@?$_Narrow_char_traits@DH@std@@SAPEADQEAD_KD@Z ; std::_Narrow_char_traits<char,int>::assign
PUBLIC	?_Eos@?$basic_string@DU?$char_traits@D@std@@V?$allocator@D@2@@std@@AEAAX_K@Z ; std::basic_string<char,std::char_traits<char>,std::allocator<char> >::_Eos
PUBLIC	?deallocate@?$allocator@N@std@@QEAAXQEAN_K@Z	; std::allocator<double>::deallocate
PUBLIC	?max_size@?$_Default_allocator_traits@V?$allocator@N@std@@@std@@SA_KAEBV?$allocator@N@2@@Z ; std::_Default_allocator_traits<std::allocator<double> >::max_size
PUBLIC	?_Getal@?$vector@NV?$allocator@N@std@@@std@@AEAAAEAV?$allocator@N@2@XZ ; std::vector<double,std::allocator<double> >::_Getal
PUBLIC	?_Getal@?$vector@NV?$allocator@N@std@@@std@@AEBAAEBV?$allocator@N@2@XZ ; std::vector<double,std::allocator<double> >::_Getal
PUBLIC	?deallocate@?$allocator@V?$vector@HV?$allocator@H@std@@@std@@@std@@QEAAXQEAV?$vector@HV?$allocator@H@std@@@2@_K@Z ; std::allocator<std::vector<int,std::allocator<int> > >::deallocate
PUBLIC	?deallocate@?$allocator@H@std@@QEAAXQEAH_K@Z	; std::allocator<int>::deallocate
PUBLIC	?begin@?$vector@HV?$allocator@H@std@@@std@@QEBA?AV?$_Vector_const_iterator@V?$_Vector_val@U?$_Simple_types@H@std@@@std@@@2@XZ ; std::vector<int,std::allocator<int> >::begin
PUBLIC	?end@?$vector@HV?$allocator@H@std@@@std@@QEBA?AV?$_Vector_const_iterator@V?$_Vector_val@U?$_Simple_types@H@std@@@std@@@2@XZ ; std::vector<int,std::allocator<int> >::end
PUBLIC	??0?$_Vector_const_iterator@V?$_Vector_val@U?$_Simple_types@H@std@@@std@@@std@@QEAA@PEAHPEBU_Container_base0@1@@Z ; std::_Vector_const_iterator<std::_Vector_val<std::_Simple_types<int> > >::_Vector_const_iterator<std::_Vector_val<std::_Simple_types<int> > >
PUBLIC	?max_size@?$vector@NV?$allocator@N@std@@@std@@QEBA_KXZ ; std::vector<double,std::allocator<double> >::max_size
PUBLIC	?capacity@?$vector@NV?$allocator@N@std@@@std@@QEBA_KXZ ; std::vector<double,std::allocator<double> >::capacity
PUBLIC	?_Tidy@?$vector@NV?$allocator@N@std@@@std@@AEAAXXZ ; std::vector<double,std::allocator<double> >::_Tidy
PUBLIC	?_Xlength@?$vector@NV?$allocator@N@std@@@std@@CAXXZ ; std::vector<double,std::allocator<double> >::_Xlength
PUBLIC	??0?$_Vector_const_iterator@V?$_Vector_val@U?$_Simple_types@N@std@@@std@@@std@@QEAA@PEANPEBU_Container_base0@1@@Z ; std::_Vector_const_iterator<std::_Vector_val<std::_Simple_types<double> > >::_Vector_const_iterator<std::_Vector_val<std::_Simple_types<double> > >
PUBLIC	??0?$basic_string@DU?$char_traits@D@std@@V?$allocator@D@2@@std@@QEAA@_KD@Z ; std::basic_string<char,std::char_traits<char>,std::allocator<char> >::basic_string<char,std::char_traits<char>,std::allocator<char> >
PUBLIC	??A?$basic_string@DU?$char_traits@D@std@@V?$allocator@D@2@@std@@QEAAAEAD_K@Z ; std::basic_string<char,std::char_traits<char>,std::allocator<char> >::operator[]
PUBLIC	?allocate@?$allocator@V?$vector@HV?$allocator@H@std@@@std@@@std@@QEAAPEAV?$vector@HV?$allocator@H@std@@@2@_K@Z ; std::allocator<std::vector<int,std::allocator<int> > >::allocate
PUBLIC	??1?$vector@V?$vector@HV?$allocator@H@std@@@std@@V?$allocator@V?$vector@HV?$allocator@H@std@@@std@@@2@@std@@QEAA@XZ ; std::vector<std::vector<int,std::allocator<int> >,std::allocator<std::vector<int,std::allocator<int> > > >::~vector<std::vector<int,std::allocator<int> >,std::allocator<std::vector<int,std::allocator<int> > > >
PUBLIC	?size@?$vector@V?$vector@HV?$allocator@H@std@@@std@@V?$allocator@V?$vector@HV?$allocator@H@std@@@std@@@2@@std@@QEBA_KXZ ; std::vector<std::vector<int,std::allocator<int> >,std::allocator<std::vector<int,std::allocator<int> > > >::size
PUBLIC	??A?$vector@V?$vector@HV?$allocator@H@std@@@std@@V?$allocator@V?$vector@HV?$allocator@H@std@@@std@@@2@@std@@QEAAAEAV?$vector@HV?$allocator@H@std@@@1@_K@Z ; std::vector<std::vector<int,std::allocator<int> >,std::allocator<std::vector<int,std::allocator<int> > > >::operator[]
PUBLIC	?_Tidy@?$vector@V?$vector@HV?$allocator@H@std@@@std@@V?$allocator@V?$vector@HV?$allocator@H@std@@@std@@@2@@std@@AEAAXXZ ; std::vector<std::vector<int,std::allocator<int> >,std::allocator<std::vector<int,std::allocator<int> > > >::_Tidy
PUBLIC	?_Xlength@?$vector@V?$vector@HV?$allocator@H@std@@@std@@V?$allocator@V?$vector@HV?$allocator@H@std@@@std@@@2@@std@@CAXXZ ; std::vector<std::vector<int,std::allocator<int> >,std::allocator<std::vector<int,std::allocator<int> > > >::_Xlength
PUBLIC	?allocate@?$allocator@H@std@@QEAAPEAH_K@Z	; std::allocator<int>::allocate
PUBLIC	??1?$vector@HV?$allocator@H@std@@@std@@QEAA@XZ	; std::vector<int,std::allocator<int> >::~vector<int,std::allocator<int> >
PUBLIC	??0?$_Vector_iterator@V?$_Vector_val@U?$_Simple_types@H@std@@@std@@@std@@QEAA@PEAHPEBU_Container_base0@1@@Z ; std::_Vector_iterator<std::_Vector_val<std::_Simple_types<int> > >::_Vector_iterator<std::_Vector_val<std::_Simple_types<int> > >
PUBLIC	?begin@?$vector@HV?$allocator@H@std@@@std@@QEAA?AV?$_Vector_iterator@V?$_Vector_val@U?$_Simple_types@H@std@@@std@@@2@XZ ; std::vector<int,std::allocator<int> >::begin
PUBLIC	?cbegin@?$vector@HV?$allocator@H@std@@@std@@QEBA?AV?$_Vector_const_iterator@V?$_Vector_val@U?$_Simple_types@H@std@@@std@@@2@XZ ; std::vector<int,std::allocator<int> >::cbegin
PUBLIC	?cend@?$vector@HV?$allocator@H@std@@@std@@QEBA?AV?$_Vector_const_iterator@V?$_Vector_val@U?$_Simple_types@H@std@@@std@@@2@XZ ; std::vector<int,std::allocator<int> >::cend
PUBLIC	?_Unchecked_begin@?$vector@HV?$allocator@H@std@@@std@@QEBAPEBHXZ ; std::vector<int,std::allocator<int> >::_Unchecked_begin
PUBLIC	?_Unchecked_end@?$vector@HV?$allocator@H@std@@@std@@QEBAPEBHXZ ; std::vector<int,std::allocator<int> >::_Unchecked_end
PUBLIC	??A?$vector@HV?$allocator@H@std@@@std@@QEAAAEAH_K@Z ; std::vector<int,std::allocator<int> >::operator[]
PUBLIC	?_Tidy@?$vector@HV?$allocator@H@std@@@std@@AEAAXXZ ; std::vector<int,std::allocator<int> >::_Tidy
PUBLIC	?_Xlength@?$vector@HV?$allocator@H@std@@@std@@CAXXZ ; std::vector<int,std::allocator<int> >::_Xlength
PUBLIC	??0?$bitset@$07@std@@QEAA@_K@Z			; std::bitset<8>::bitset<8>
PUBLIC	?data@?$array@_K$0EA@@std@@QEAAPEA_KXZ		; std::array<unsigned __int64,64>::data
PUBLIC	?size@?$array@_K$0P@@std@@QEBA_KXZ		; std::array<unsigned __int64,15>::size
PUBLIC	??0?$vector@NV?$allocator@N@std@@@std@@QEAA@XZ	; std::vector<double,std::allocator<double> >::vector<double,std::allocator<double> >
PUBLIC	??1?$vector@NV?$allocator@N@std@@@std@@QEAA@XZ	; std::vector<double,std::allocator<double> >::~vector<double,std::allocator<double> >
PUBLIC	?push_back@?$vector@NV?$allocator@N@std@@@std@@QEAAXAEBN@Z ; std::vector<double,std::allocator<double> >::push_back
PUBLIC	?reserve@?$vector@NV?$allocator@N@std@@@std@@QEAAX_K@Z ; std::vector<double,std::allocator<double> >::reserve
PUBLIC	?begin@?$vector@NV?$allocator@N@std@@@std@@QEAA?AV?$_Vector_iterator@V?$_Vector_val@U?$_Simple_types@N@std@@@std@@@2@XZ ; std::vector<double,std::allocator<double> >::begin
PUBLIC	??0?$_Vector_iterator@V?$_Vector_val@U?$_Simple_types@N@std@@@std@@@std@@QEAA@PEANPEBU_Container_base0@1@@Z ; std::_Vector_iterator<std::_Vector_val<std::_Simple_types<double> > >::_Vector_iterator<std::_Vector_val<std::_Simple_types<double> > >
PUBLIC	?end@?$vector@NV?$allocator@N@std@@@std@@QEAA?AV?$_Vector_iterator@V?$_Vector_val@U?$_Simple_types@N@std@@@std@@@2@XZ ; std::vector<double,std::allocator<double> >::end
PUBLIC	?__autoclassinit2@hi_res_timer@@QEAAX_K@Z	; hi_res_timer::__autoclassinit2
PUBLIC	?__autoclassinit2@?$vector@NV?$allocator@N@std@@@std@@QEAAX_K@Z ; std::vector<double,std::allocator<double> >::__autoclassinit2
PUBLIC	?__autoclassinit2@?$vector@HV?$allocator@H@std@@@std@@QEAAX_K@Z ; std::vector<int,std::allocator<int> >::__autoclassinit2
PUBLIC	??A?$vector@NV?$allocator@N@std@@@std@@QEAAAEAN_K@Z ; std::vector<double,std::allocator<double> >::operator[]
PUBLIC	?do_solve@qns@@YAX_KAEAV?$vector@HV?$allocator@H@std@@@std@@H@Z ; qns::do_solve
PUBLIC	?threaten@threats@qns@@YA_K_KHH@Z		; qns::threats::threaten
PUBLIC	??A?$array@_K$0P@@std@@QEBAAEB_K_K@Z		; std::array<unsigned __int64,15>::operator[]
PUBLIC	?not_threatened_rows@threats@qns@@YAAEBV?$vector@HV?$allocator@H@std@@@std@@_KH@Z ; qns::threats::not_threatened_rows
PUBLIC	?is_totally_under_threat@threats@qns@@YA_N_KH@Z	; qns::threats::is_totally_under_threat
PUBLIC	??$move@AEAPEBV?$vector@HV?$allocator@H@std@@@std@@@std@@YA$$QEAPEBV?$vector@HV?$allocator@H@std@@@0@AEAPEBV10@@Z ; std::move<std::vector<int,std::allocator<int> > const * &>
PUBLIC	??$_Uninitialized_copy@PEBV?$vector@HV?$allocator@H@std@@@std@@PEBV12@V?$allocator@V?$vector@HV?$allocator@H@std@@@std@@@2@@std@@YAPEAV?$vector@HV?$allocator@H@std@@@0@PEBV10@0PEAV10@AEAV?$allocator@V?$vector@HV?$allocator@H@std@@@std@@@0@@Z ; std::_Uninitialized_copy<std::vector<int,std::allocator<int> > const *,std::vector<int,std::allocator<int> > const *,std::allocator<std::vector<int,std::allocator<int> > > >
PUBLIC	??$_Unwrap_sent@PEBV?$vector@HV?$allocator@H@std@@@std@@PEBV12@@ranges@std@@YA?A_T$$QEAPEBV?$vector@HV?$allocator@H@std@@@1@@Z ; std::ranges::_Unwrap_sent<std::vector<int,std::allocator<int> > const *,std::vector<int,std::allocator<int> > const *>
PUBLIC	??$_Unwrap_iter@PEBV?$vector@HV?$allocator@H@std@@@std@@PEBV12@@ranges@std@@YA?A_T$$QEAPEBV?$vector@HV?$allocator@H@std@@@1@@Z ; std::ranges::_Unwrap_iter<std::vector<int,std::allocator<int> > const *,std::vector<int,std::allocator<int> > const *>
PUBLIC	??$forward@PEBV?$vector@HV?$allocator@H@std@@@std@@@std@@YA$$QEAPEBV?$vector@HV?$allocator@H@std@@@0@AEAPEBV10@@Z ; std::forward<std::vector<int,std::allocator<int> > const *>
PUBLIC	??$_Construct_n@PEBV?$vector@HV?$allocator@H@std@@@std@@PEBV12@@?$vector@V?$vector@HV?$allocator@H@std@@@std@@V?$allocator@V?$vector@HV?$allocator@H@std@@@std@@@2@@std@@AEAAX_K$$QEAPEBV?$vector@HV?$allocator@H@std@@@1@1@Z ; std::vector<std::vector<int,std::allocator<int> >,std::allocator<std::vector<int,std::allocator<int> > > >::_Construct_n<std::vector<int,std::allocator<int> > const *,std::vector<int,std::allocator<int> > const *>
PUBLIC	?end@?$initializer_list@V?$vector@HV?$allocator@H@std@@@std@@@std@@QEBAPEBV?$vector@HV?$allocator@H@std@@@2@XZ ; std::initializer_list<std::vector<int,std::allocator<int> > >::end
PUBLIC	?begin@?$initializer_list@V?$vector@HV?$allocator@H@std@@@std@@@std@@QEBAPEBV?$vector@HV?$allocator@H@std@@@2@XZ ; std::initializer_list<std::vector<int,std::allocator<int> > >::begin
PUBLIC	?size@?$initializer_list@V?$vector@HV?$allocator@H@std@@@std@@@std@@QEBA_KXZ ; std::initializer_list<std::vector<int,std::allocator<int> > >::size
PUBLIC	??0?$vector@V?$vector@HV?$allocator@H@std@@@std@@V?$allocator@V?$vector@HV?$allocator@H@std@@@std@@@2@@std@@QEAA@V?$initializer_list@V?$vector@HV?$allocator@H@std@@@std@@@1@AEBV?$allocator@V?$vector@HV?$allocator@H@std@@@std@@@1@@Z ; std::vector<std::vector<int,std::allocator<int> >,std::allocator<std::vector<int,std::allocator<int> > > >::vector<std::vector<int,std::allocator<int> >,std::allocator<std::vector<int,std::allocator<int> > > >
PUBLIC	??0?$initializer_list@V?$vector@HV?$allocator@H@std@@@std@@@std@@QEAA@PEBV?$vector@HV?$allocator@H@std@@@1@0@Z ; std::initializer_list<std::vector<int,std::allocator<int> > >::initializer_list<std::vector<int,std::allocator<int> > >
PUBLIC	?show_map@qns@@YAX_K@Z				; qns::show_map
PUBLIC	?__autoclassinit2@?$_Uninitialized_backout_al@V?$allocator@V?$vector@HV?$allocator@H@std@@@std@@@std@@@std@@QEAAX_K@Z ; std::_Uninitialized_backout_al<std::allocator<std::vector<int,std::allocator<int> > > >::__autoclassinit2
PUBLIC	?__autoclassinit2@?$_Uninitialized_backout_al@V?$allocator@H@std@@@std@@QEAAX_K@Z ; std::_Uninitialized_backout_al<std::allocator<int> >::__autoclassinit2
PUBLIC	?__autoclassinit2@?$vector@V?$vector@HV?$allocator@H@std@@@std@@V?$allocator@V?$vector@HV?$allocator@H@std@@@std@@@2@@std@@QEAAX_K@Z ; std::vector<std::vector<int,std::allocator<int> >,std::allocator<std::vector<int,std::allocator<int> > > >::__autoclassinit2
PUBLIC	??1?$_Tidy_guard@V?$vector@V?$vector@HV?$allocator@H@std@@@std@@V?$allocator@V?$vector@HV?$allocator@H@std@@@std@@@2@@std@@@std@@QEAA@XZ ; std::_Tidy_guard<std::vector<std::vector<int,std::allocator<int> >,std::allocator<std::vector<int,std::allocator<int> > > > >::~_Tidy_guard<std::vector<std::vector<int,std::allocator<int> >,std::allocator<std::vector<int,std::allocator<int> > > > >
PUBLIC	??$_Destroy_range@V?$allocator@V?$vector@HV?$allocator@H@std@@@std@@@std@@@std@@YAXPEAV?$vector@HV?$allocator@H@std@@@0@QEAV10@AEAV?$allocator@V?$vector@HV?$allocator@H@std@@@std@@@0@@Z ; std::_Destroy_range<std::allocator<std::vector<int,std::allocator<int> > > >
PUBLIC	??1?$_Uninitialized_backout_al@V?$allocator@V?$vector@HV?$allocator@H@std@@@std@@@std@@@std@@QEAA@XZ ; std::_Uninitialized_backout_al<std::allocator<std::vector<int,std::allocator<int> > > >::~_Uninitialized_backout_al<std::allocator<std::vector<int,std::allocator<int> > > >
PUBLIC	?_Release@?$_Uninitialized_backout_al@V?$allocator@V?$vector@HV?$allocator@H@std@@@std@@@std@@@std@@QEAAPEAV?$vector@HV?$allocator@H@std@@@2@XZ ; std::_Uninitialized_backout_al<std::allocator<std::vector<int,std::allocator<int> > > >::_Release
PUBLIC	??$construct_at@HAEAH$0A@@std@@YAPEAHQEAHAEAH@Z	; std::construct_at<int,int &,0>
PUBLIC	??$construct@HAEAH@?$_Default_allocator_traits@V?$allocator@H@std@@@std@@SAXAEAV?$allocator@H@1@QEAHAEAH@Z ; std::_Default_allocator_traits<std::allocator<int> >::construct<int,int &>
PUBLIC	??$forward@AEAH@std@@YAAEAHAEAH@Z		; std::forward<int &>
PUBLIC	??$_Emplace_back@AEAH@?$_Uninitialized_backout_al@V?$allocator@H@std@@@std@@QEAAXAEAH@Z ; std::_Uninitialized_backout_al<std::allocator<int> >::_Emplace_back<int &>
PUBLIC	??$move@AEAPEAH@std@@YA$$QEAPEAHAEAPEAH@Z	; std::move<int * &>
PUBLIC	??$_To_address@PEAH@std@@YA?A_PAEBQEAH@Z	; std::_To_address<int *>
PUBLIC	??$_Uninitialized_copy@PEAHPEAHV?$allocator@H@std@@@std@@YAPEAHPEAH00AEAV?$allocator@H@0@@Z ; std::_Uninitialized_copy<int *,int *,std::allocator<int> >
PUBLIC	??$_Unwrap_sent@PEAHPEAH@ranges@std@@YA?A_T$$QEAPEAH@Z ; std::ranges::_Unwrap_sent<int *,int *>
PUBLIC	??$_Unwrap_iter@PEAHPEAH@ranges@std@@YA?A_T$$QEAPEAH@Z ; std::ranges::_Unwrap_iter<int *,int *>
PUBLIC	??$forward@AEBQEAH@std@@YAAEBQEAHAEBQEAH@Z	; std::forward<int * const &>
PUBLIC	??$_Construct_n@AEBQEAHAEBQEAH@?$vector@HV?$allocator@H@std@@@std@@AEAAX_KAEBQEAH1@Z ; std::vector<int,std::allocator<int> >::_Construct_n<int * const &,int * const &>
PUBLIC	??$forward@V?$allocator@H@std@@@std@@YA$$QEAV?$allocator@H@0@AEAV10@@Z ; std::forward<std::allocator<int> >
PUBLIC	??$?0V?$allocator@H@std@@$$V@?$_Compressed_pair@V?$allocator@H@std@@V?$_Vector_val@U?$_Simple_types@H@std@@@2@$00@std@@QEAA@U_One_then_variadic_args_t@1@$$QEAV?$allocator@H@1@@Z ; std::_Compressed_pair<std::allocator<int>,std::_Vector_val<std::_Simple_types<int> >,1>::_Compressed_pair<std::allocator<int>,std::_Vector_val<std::_Simple_types<int> >,1><std::allocator<int> >
PUBLIC	?select_on_container_copy_construction@?$_Default_allocator_traits@V?$allocator@H@std@@@std@@SA?AV?$allocator@H@2@AEBV32@@Z ; std::_Default_allocator_traits<std::allocator<int> >::select_on_container_copy_construction
PUBLIC	??0?$vector@HV?$allocator@H@std@@@std@@QEAA@AEBV01@@Z ; std::vector<int,std::allocator<int> >::vector<int,std::allocator<int> >
PUBLIC	??$construct_at@V?$vector@HV?$allocator@H@std@@@std@@AEBV12@$0A@@std@@YAPEAV?$vector@HV?$allocator@H@std@@@0@QEAV10@AEBV10@@Z ; std::construct_at<std::vector<int,std::allocator<int> >,std::vector<int,std::allocator<int> > const &,0>
PUBLIC	??$construct@V?$vector@HV?$allocator@H@std@@@std@@AEBV12@@?$_Default_allocator_traits@V?$allocator@V?$vector@HV?$allocator@H@std@@@std@@@std@@@std@@SAXAEAV?$allocator@V?$vector@HV?$allocator@H@std@@@std@@@1@QEAV?$vector@HV?$allocator@H@std@@@1@AEBV31@@Z ; std::_Default_allocator_traits<std::allocator<std::vector<int,std::allocator<int> > > >::construct<std::vector<int,std::allocator<int> >,std::vector<int,std::allocator<int> > const &>
PUBLIC	??$forward@AEBV?$vector@HV?$allocator@H@std@@@std@@@std@@YAAEBV?$vector@HV?$allocator@H@std@@@0@AEBV10@@Z ; std::forward<std::vector<int,std::allocator<int> > const &>
PUBLIC	??$_Unfancy@V?$vector@HV?$allocator@H@std@@@std@@@std@@YAPEAV?$vector@HV?$allocator@H@std@@@0@PEAV10@@Z ; std::_Unfancy<std::vector<int,std::allocator<int> > >
PUBLIC	??$_Emplace_back@AEBV?$vector@HV?$allocator@H@std@@@std@@@?$_Uninitialized_backout_al@V?$allocator@V?$vector@HV?$allocator@H@std@@@std@@@std@@@std@@QEAAXAEBV?$vector@HV?$allocator@H@std@@@1@@Z ; std::_Uninitialized_backout_al<std::allocator<std::vector<int,std::allocator<int> > > >::_Emplace_back<std::vector<int,std::allocator<int> > const &>
PUBLIC	??0?$_Uninitialized_backout_al@V?$allocator@V?$vector@HV?$allocator@H@std@@@std@@@std@@@std@@QEAA@PEAV?$vector@HV?$allocator@H@std@@@1@AEAV?$allocator@V?$vector@HV?$allocator@H@std@@@std@@@1@@Z ; std::_Uninitialized_backout_al<std::allocator<std::vector<int,std::allocator<int> > > >::_Uninitialized_backout_al<std::allocator<std::vector<int,std::allocator<int> > > >
PUBLIC	??$_Uninitialized_fill_n@V?$allocator@V?$vector@HV?$allocator@H@std@@@std@@@std@@@std@@YAPEAV?$vector@HV?$allocator@H@std@@@0@PEAV10@_KAEBV10@AEAV?$allocator@V?$vector@HV?$allocator@H@std@@@std@@@0@@Z ; std::_Uninitialized_fill_n<std::allocator<std::vector<int,std::allocator<int> > > >
PUBLIC	??$_Allocate_at_least_helper@V?$allocator@V?$vector@HV?$allocator@H@std@@@std@@@std@@@std@@YAPEAV?$vector@HV?$allocator@H@std@@@0@AEAV?$allocator@V?$vector@HV?$allocator@H@std@@@std@@@0@AEA_K@Z ; std::_Allocate_at_least_helper<std::allocator<std::vector<int,std::allocator<int> > > >
PUBLIC	?_Buy_raw@?$vector@V?$vector@HV?$allocator@H@std@@@std@@V?$allocator@V?$vector@HV?$allocator@H@std@@@std@@@2@@std@@AEAAX_K@Z ; std::vector<std::vector<int,std::allocator<int> >,std::allocator<std::vector<int,std::allocator<int> > > >::_Buy_raw
PUBLIC	?max_size@?$_Default_allocator_traits@V?$allocator@V?$vector@HV?$allocator@H@std@@@std@@@std@@@std@@SA_KAEBV?$allocator@V?$vector@HV?$allocator@H@std@@@std@@@2@@Z ; std::_Default_allocator_traits<std::allocator<std::vector<int,std::allocator<int> > > >::max_size
PUBLIC	?_Get_first@?$_Compressed_pair@V?$allocator@V?$vector@HV?$allocator@H@std@@@std@@@std@@V?$_Vector_val@U?$_Simple_types@V?$vector@HV?$allocator@H@std@@@std@@@std@@@2@$00@std@@QEBAAEBV?$allocator@V?$vector@HV?$allocator@H@std@@@std@@@2@XZ ; std::_Compressed_pair<std::allocator<std::vector<int,std::allocator<int> > >,std::_Vector_val<std::_Simple_types<std::vector<int,std::allocator<int> > > >,1>::_Get_first
PUBLIC	?_Getal@?$vector@V?$vector@HV?$allocator@H@std@@@std@@V?$allocator@V?$vector@HV?$allocator@H@std@@@std@@@2@@std@@AEBAAEBV?$allocator@V?$vector@HV?$allocator@H@std@@@std@@@2@XZ ; std::vector<std::vector<int,std::allocator<int> >,std::allocator<std::vector<int,std::allocator<int> > > >::_Getal
PUBLIC	?max_size@?$vector@V?$vector@HV?$allocator@H@std@@@std@@V?$allocator@V?$vector@HV?$allocator@H@std@@@std@@@2@@std@@QEBA_KXZ ; std::vector<std::vector<int,std::allocator<int> >,std::allocator<std::vector<int,std::allocator<int> > > >::max_size
PUBLIC	?_Buy_nonzero@?$vector@V?$vector@HV?$allocator@H@std@@@std@@V?$allocator@V?$vector@HV?$allocator@H@std@@@std@@@2@@std@@AEAAX_K@Z ; std::vector<std::vector<int,std::allocator<int> >,std::allocator<std::vector<int,std::allocator<int> > > >::_Buy_nonzero
PUBLIC	?_Get_first@?$_Compressed_pair@V?$allocator@V?$vector@HV?$allocator@H@std@@@std@@@std@@V?$_Vector_val@U?$_Simple_types@V?$vector@HV?$allocator@H@std@@@std@@@std@@@2@$00@std@@QEAAAEAV?$allocator@V?$vector@HV?$allocator@H@std@@@std@@@2@XZ ; std::_Compressed_pair<std::allocator<std::vector<int,std::allocator<int> > >,std::_Vector_val<std::_Simple_types<std::vector<int,std::allocator<int> > > >,1>::_Get_first
PUBLIC	?_Getal@?$vector@V?$vector@HV?$allocator@H@std@@@std@@V?$allocator@V?$vector@HV?$allocator@H@std@@@std@@@2@@std@@AEAAAEAV?$allocator@V?$vector@HV?$allocator@H@std@@@std@@@2@XZ ; std::vector<std::vector<int,std::allocator<int> >,std::allocator<std::vector<int,std::allocator<int> > > >::_Getal
PUBLIC	??$_Construct_n@AEBV?$vector@HV?$allocator@H@std@@@std@@@?$vector@V?$vector@HV?$allocator@H@std@@@std@@V?$allocator@V?$vector@HV?$allocator@H@std@@@std@@@2@@std@@AEAAX_KAEBV?$vector@HV?$allocator@H@std@@@1@@Z ; std::vector<std::vector<int,std::allocator<int> >,std::allocator<std::vector<int,std::allocator<int> > > >::_Construct_n<std::vector<int,std::allocator<int> > const &>
PUBLIC	??0?$_Vector_val@U?$_Simple_types@V?$vector@HV?$allocator@H@std@@@std@@@std@@@std@@QEAA@XZ ; std::_Vector_val<std::_Simple_types<std::vector<int,std::allocator<int> > > >::_Vector_val<std::_Simple_types<std::vector<int,std::allocator<int> > > >
PUBLIC	??$forward@AEBV?$allocator@V?$vector@HV?$allocator@H@std@@@std@@@std@@@std@@YAAEBV?$allocator@V?$vector@HV?$allocator@H@std@@@std@@@0@AEBV10@@Z ; std::forward<std::allocator<std::vector<int,std::allocator<int> > > const &>
PUBLIC	??$?0AEBV?$allocator@V?$vector@HV?$allocator@H@std@@@std@@@std@@$$V@?$_Compressed_pair@V?$allocator@V?$vector@HV?$allocator@H@std@@@std@@@std@@V?$_Vector_val@U?$_Simple_types@V?$vector@HV?$allocator@H@std@@@std@@@std@@@2@$00@std@@QEAA@U_One_then_variadic_args_t@1@AEBV?$allocator@V?$vector@HV?$allocator@H@std@@@std@@@1@@Z ; std::_Compressed_pair<std::allocator<std::vector<int,std::allocator<int> > >,std::_Vector_val<std::_Simple_types<std::vector<int,std::allocator<int> > > >,1>::_Compressed_pair<std::allocator<std::vector<int,std::allocator<int> > >,std::_Vector_val<std::_Simple_types<std::vector<int,std::allocator<int> > > >,1><std::allocator<std::vector<int,std::allocator<int> > > const &>
PUBLIC	??0?$vector@V?$vector@HV?$allocator@H@std@@@std@@V?$allocator@V?$vector@HV?$allocator@H@std@@@std@@@2@@std@@QEAA@_KAEBV?$vector@HV?$allocator@H@std@@@1@AEBV?$allocator@V?$vector@HV?$allocator@H@std@@@std@@@1@@Z ; std::vector<std::vector<int,std::allocator<int> >,std::allocator<std::vector<int,std::allocator<int> > > >::vector<std::vector<int,std::allocator<int> >,std::allocator<std::vector<int,std::allocator<int> > > >
PUBLIC	??0?$allocator@V?$vector@HV?$allocator@H@std@@@std@@@std@@QEAA@XZ ; std::allocator<std::vector<int,std::allocator<int> > >::allocator<std::vector<int,std::allocator<int> > >
PUBLIC	??1?$_Tidy_guard@V?$vector@HV?$allocator@H@std@@@std@@@std@@QEAA@XZ ; std::_Tidy_guard<std::vector<int,std::allocator<int> > >::~_Tidy_guard<std::vector<int,std::allocator<int> > >
PUBLIC	??$_Destroy_range@V?$allocator@H@std@@@std@@YAXPEAHQEAHAEAV?$allocator@H@0@@Z ; std::_Destroy_range<std::allocator<int> >
PUBLIC	??1?$_Uninitialized_backout_al@V?$allocator@H@std@@@std@@QEAA@XZ ; std::_Uninitialized_backout_al<std::allocator<int> >::~_Uninitialized_backout_al<std::allocator<int> >
PUBLIC	?_Release@?$_Uninitialized_backout_al@V?$allocator@H@std@@@std@@QEAAPEAHXZ ; std::_Uninitialized_backout_al<std::allocator<int> >::_Release
PUBLIC	??$construct_at@HAEBH$0A@@std@@YAPEAHQEAHAEBH@Z	; std::construct_at<int,int const &,0>
PUBLIC	??$construct@HAEBH@?$_Default_allocator_traits@V?$allocator@H@std@@@std@@SAXAEAV?$allocator@H@1@QEAHAEBH@Z ; std::_Default_allocator_traits<std::allocator<int> >::construct<int,int const &>
PUBLIC	??$_Unfancy@H@std@@YAPEAHPEAH@Z			; std::_Unfancy<int>
PUBLIC	??$_Emplace_back@AEBH@?$_Uninitialized_backout_al@V?$allocator@H@std@@@std@@QEAAXAEBH@Z ; std::_Uninitialized_backout_al<std::allocator<int> >::_Emplace_back<int const &>
PUBLIC	??0?$_Uninitialized_backout_al@V?$allocator@H@std@@@std@@QEAA@PEAHAEAV?$allocator@H@1@@Z ; std::_Uninitialized_backout_al<std::allocator<int> >::_Uninitialized_backout_al<std::allocator<int> >
PUBLIC	??$_Uninitialized_fill_n@V?$allocator@H@std@@@std@@YAPEAHPEAH_KAEBHAEAV?$allocator@H@0@@Z ; std::_Uninitialized_fill_n<std::allocator<int> >
PUBLIC	??$_Allocate_at_least_helper@V?$allocator@H@std@@@std@@YAPEAHAEAV?$allocator@H@0@AEA_K@Z ; std::_Allocate_at_least_helper<std::allocator<int> >
PUBLIC	?_Buy_raw@?$vector@HV?$allocator@H@std@@@std@@AEAAX_K@Z ; std::vector<int,std::allocator<int> >::_Buy_raw
PUBLIC	?max_size@?$_Default_allocator_traits@V?$allocator@H@std@@@std@@SA_KAEBV?$allocator@H@2@@Z ; std::_Default_allocator_traits<std::allocator<int> >::max_size
PUBLIC	?_Get_first@?$_Compressed_pair@V?$allocator@H@std@@V?$_Vector_val@U?$_Simple_types@H@std@@@2@$00@std@@QEBAAEBV?$allocator@H@2@XZ ; std::_Compressed_pair<std::allocator<int>,std::_Vector_val<std::_Simple_types<int> >,1>::_Get_first
PUBLIC	?_Getal@?$vector@HV?$allocator@H@std@@@std@@AEBAAEBV?$allocator@H@2@XZ ; std::vector<int,std::allocator<int> >::_Getal
PUBLIC	?max_size@?$vector@HV?$allocator@H@std@@@std@@QEBA_KXZ ; std::vector<int,std::allocator<int> >::max_size
PUBLIC	?_Buy_nonzero@?$vector@HV?$allocator@H@std@@@std@@AEAAX_K@Z ; std::vector<int,std::allocator<int> >::_Buy_nonzero
PUBLIC	?_Get_first@?$_Compressed_pair@V?$allocator@H@std@@V?$_Vector_val@U?$_Simple_types@H@std@@@2@$00@std@@QEAAAEAV?$allocator@H@2@XZ ; std::_Compressed_pair<std::allocator<int>,std::_Vector_val<std::_Simple_types<int> >,1>::_Get_first
PUBLIC	?_Getal@?$vector@HV?$allocator@H@std@@@std@@AEAAAEAV?$allocator@H@2@XZ ; std::vector<int,std::allocator<int> >::_Getal
PUBLIC	??$_Construct_n@AEBH@?$vector@HV?$allocator@H@std@@@std@@AEAAX_KAEBH@Z ; std::vector<int,std::allocator<int> >::_Construct_n<int const &>
PUBLIC	??0?$_Vector_val@U?$_Simple_types@H@std@@@std@@QEAA@XZ ; std::_Vector_val<std::_Simple_types<int> >::_Vector_val<std::_Simple_types<int> >
PUBLIC	??$forward@AEBV?$allocator@H@std@@@std@@YAAEBV?$allocator@H@0@AEBV10@@Z ; std::forward<std::allocator<int> const &>
PUBLIC	??$?0AEBV?$allocator@H@std@@$$V@?$_Compressed_pair@V?$allocator@H@std@@V?$_Vector_val@U?$_Simple_types@H@std@@@2@$00@std@@QEAA@U_One_then_variadic_args_t@1@AEBV?$allocator@H@1@@Z ; std::_Compressed_pair<std::allocator<int>,std::_Vector_val<std::_Simple_types<int> >,1>::_Compressed_pair<std::allocator<int>,std::_Vector_val<std::_Simple_types<int> >,1><std::allocator<int> const &>
PUBLIC	??0?$vector@HV?$allocator@H@std@@@std@@QEAA@_KAEBHAEBV?$allocator@H@1@@Z ; std::vector<int,std::allocator<int> >::vector<int,std::allocator<int> >
PUBLIC	??0?$allocator@H@std@@QEAA@XZ			; std::allocator<int>::allocator<int>
PUBLIC	?hex@std@@YAAEAVios_base@1@AEAV21@@Z		; std::hex
PUBLIC	?dec@std@@YAAEAVios_base@1@AEAV21@@Z		; std::dec
PUBLIC	?max@?$numeric_limits@N@std@@SANXZ		; std::numeric_limits<double>::max
PUBLIC	?set_board_size@qns@@YAXH@Z			; qns::set_board_size
PUBLIC	?set_verbose@qns@@YAX_N@Z			; qns::set_verbose
PUBLIC	?test@qns@@YAXXZ				; qns::test
PUBLIC	?set_short@qns@@YAXH@Z				; qns::set_short
PUBLIC	?solve@qns@@YANXZ				; qns::solve
PUBLIC	?safe_indices@threats@qns@@3V?$vector@V?$vector@HV?$allocator@H@std@@@std@@V?$allocator@V?$vector@HV?$allocator@H@std@@@std@@@2@@std@@A ; qns::threats::safe_indices
?success_count@qns@@3IA DD 01H DUP (?)			; qns::success_count
?safe_indices@threats@qns@@3V?$vector@V?$vector@HV?$allocator@H@std@@@std@@V?$allocator@V?$vector@HV?$allocator@H@std@@@std@@@2@@std@@A DB 018H DUP (?) ; qns::threats::safe_indices
?solutions@qns@@3V?$vector@V?$vector@HV?$allocator@H@std@@@std@@V?$allocator@V?$vector@HV?$allocator@H@std@@@std@@@2@@std@@A DB 018H DUP (?) ; qns::solutions
?failures_count@qns@@3IA DD 01H DUP (?)			; qns::failures_count
_BSS	ENDS
;	COMDAT pdata
pdata	SEGMENT
$pdata$??$_Pop_heap_hole_unchecked@PEANNU?$less@X@std@@@std@@YAXPEAN00$$QEANU?$less@X@0@@Z DD imagerel $LN38@Pop_heap_h
	DD	imagerel $LN38@Pop_heap_h+176
	DD	imagerel $unwind$??$_Pop_heap_hole_unchecked@PEANNU?$less@X@std@@@std@@YAXPEAN00$$QEANU?$less@X@0@@Z
pdata	ENDS
;	COMDAT pdata
pdata	SEGMENT
$pdata$??$_Pop_heap_hole_by_index@PEANNU?$less@X@std@@@std@@YAXPEAN_J1$$QEANU?$less@X@0@@Z DD imagerel $LN36@Pop_heap_h
	DD	imagerel $LN36@Pop_heap_h+159
	DD	imagerel $unwind$??$_Pop_heap_hole_by_index@PEANNU?$less@X@std@@@std@@YAXPEAN_J1$$QEANU?$less@X@0@@Z
pdata	ENDS
;	COMDAT pdata
pdata	SEGMENT
$pdata$??$_Partition_by_median_guess_unchecked@PEANU?$less@X@std@@@std@@YA?AU?$pair@PEANPEAN@0@PEAN0U?$less@X@0@@Z DD imagerel $LN152@Partition_
	DD	imagerel $LN152@Partition_+719
	DD	imagerel $unwind$??$_Partition_by_median_guess_unchecked@PEANU?$less@X@std@@@std@@YA?AU?$pair@PEANPEAN@0@PEAN0U?$less@X@0@@Z
pdata	ENDS
;	COMDAT pdata
pdata	SEGMENT
$pdata$??$_Sort_heap_unchecked@PEANU?$less@X@std@@@std@@YAXPEAN0U?$less@X@0@@Z DD imagerel $LN49@Sort_heap_
	DD	imagerel $LN49@Sort_heap_+27
	DD	imagerel $unwind$??$_Sort_heap_unchecked@PEANU?$less@X@std@@@std@@YAXPEAN0U?$less@X@0@@Z
pdata	ENDS
;	COMDAT pdata
pdata	SEGMENT
$pdata$1$??$_Sort_heap_unchecked@PEANU?$less@X@std@@@std@@YAXPEAN0U?$less@X@0@@Z DD imagerel $LN49@Sort_heap_+27
	DD	imagerel $LN49@Sort_heap_+246
	DD	imagerel $chain$1$??$_Sort_heap_unchecked@PEANU?$less@X@std@@@std@@YAXPEAN0U?$less@X@0@@Z
pdata	ENDS
;	COMDAT pdata
pdata	SEGMENT
$pdata$2$??$_Sort_heap_unchecked@PEANU?$less@X@std@@@std@@YAXPEAN0U?$less@X@0@@Z DD imagerel $LN49@Sort_heap_+246
	DD	imagerel $LN49@Sort_heap_+251
	DD	imagerel $chain$2$??$_Sort_heap_unchecked@PEANU?$less@X@std@@@std@@YAXPEAN0U?$less@X@0@@Z
pdata	ENDS
;	COMDAT pdata
pdata	SEGMENT
$pdata$??$_Make_heap_unchecked@PEANU?$less@X@std@@@std@@YAXPEAN0U?$less@X@0@@Z DD imagerel $LN43@Make_heap_
	DD	imagerel $LN43@Make_heap_+36
	DD	imagerel $unwind$??$_Make_heap_unchecked@PEANU?$less@X@std@@@std@@YAXPEAN0U?$less@X@0@@Z
pdata	ENDS
;	COMDAT pdata
pdata	SEGMENT
$pdata$0$??$_Make_heap_unchecked@PEANU?$less@X@std@@@std@@YAXPEAN0U?$less@X@0@@Z DD imagerel $LN43@Make_heap_+36
	DD	imagerel $LN43@Make_heap_+212
	DD	imagerel $chain$0$??$_Make_heap_unchecked@PEANU?$less@X@std@@@std@@YAXPEAN0U?$less@X@0@@Z
pdata	ENDS
;	COMDAT pdata
pdata	SEGMENT
$pdata$1$??$_Make_heap_unchecked@PEANU?$less@X@std@@@std@@YAXPEAN0U?$less@X@0@@Z DD imagerel $LN43@Make_heap_+212
	DD	imagerel $LN43@Make_heap_+217
	DD	imagerel $chain$1$??$_Make_heap_unchecked@PEANU?$less@X@std@@@std@@YAXPEAN0U?$less@X@0@@Z
pdata	ENDS
;	COMDAT pdata
pdata	SEGMENT
$pdata$??$_Insertion_sort_unchecked@PEANU?$less@X@std@@@std@@YAPEANQEAN0U?$less@X@0@@Z DD imagerel $LN45@Insertion_
	DD	imagerel $LN45@Insertion_+25
	DD	imagerel $unwind$??$_Insertion_sort_unchecked@PEANU?$less@X@std@@@std@@YAPEANQEAN0U?$less@X@0@@Z
pdata	ENDS
;	COMDAT pdata
pdata	SEGMENT
$pdata$0$??$_Insertion_sort_unchecked@PEANU?$less@X@std@@@std@@YAPEANQEAN0U?$less@X@0@@Z DD imagerel $LN45@Insertion_+25
	DD	imagerel $LN45@Insertion_+39
	DD	imagerel $chain$0$??$_Insertion_sort_unchecked@PEANU?$less@X@std@@@std@@YAPEANQEAN0U?$less@X@0@@Z
pdata	ENDS
;	COMDAT pdata
pdata	SEGMENT
$pdata$1$??$_Insertion_sort_unchecked@PEANU?$less@X@std@@@std@@YAPEANQEAN0U?$less@X@0@@Z DD imagerel $LN45@Insertion_+39
	DD	imagerel $LN45@Insertion_+152
	DD	imagerel $chain$1$??$_Insertion_sort_unchecked@PEANU?$less@X@std@@@std@@YAPEANQEAN0U?$less@X@0@@Z
pdata	ENDS
;	COMDAT pdata
pdata	SEGMENT
$pdata$2$??$_Insertion_sort_unchecked@PEANU?$less@X@std@@@std@@YAPEANQEAN0U?$less@X@0@@Z DD imagerel $LN45@Insertion_+152
	DD	imagerel $LN45@Insertion_+171
	DD	imagerel $chain$2$??$_Insertion_sort_unchecked@PEANU?$less@X@std@@@std@@YAPEANQEAN0U?$less@X@0@@Z
pdata	ENDS
;	COMDAT pdata
pdata	SEGMENT
$pdata$3$??$_Insertion_sort_unchecked@PEANU?$less@X@std@@@std@@YAPEANQEAN0U?$less@X@0@@Z DD imagerel $LN45@Insertion_+171
	DD	imagerel $LN45@Insertion_+185
	DD	imagerel $chain$3$??$_Insertion_sort_unchecked@PEANU?$less@X@std@@@std@@YAPEANQEAN0U?$less@X@0@@Z
pdata	ENDS
;	COMDAT pdata
pdata	SEGMENT
$pdata$??$_Reallocate_grow_by@V<lambda_1>@?4???$_Resize_and_overwrite@V<lambda_1>@?1???$to_string@DU?$char_traits@D@std@@V?$allocator@D@2@@?$bitset@$07@std@@QEBA?AV?$basic_string@DU?$char_traits@D@std@@V?$allocator@D@2@@3@DD@Z@@?$basic_string@DU?$char_traits@D@std@@V?$allocator@D@2@@std@@QEAAX_KV1?1???$to_string@DU?$char_traits@D@std@@V?$allocator@D@2@@?$bitset@$07@3@QEBA?AV23@DD@Z@@Z@$$V@?$basic_string@DU?$char_traits@D@std@@V?$allocator@D@2@@std@@AEAAAEAV01@_KV<lambda_1>@?4???$_Resize_and_overwrite@V<lambda_1>@?1???$to_string@DU?$char_traits@D@std@@V?$allocator@D@2@@?$bitset@$07@std@@QEBA?AV?$basic_string@DU?$char_traits@D@std@@V?$allocator@D@2@@3@DD@Z@@01@QEAAX0V2?1???$to_string@DU?$char_traits@D@std@@V?$allocator@D@2@@?$bitset@$07@1@QEBA?AV01@DD@Z@@Z@@Z DD imagerel $LN125@Reallocate
	DD	imagerel $LN125@Reallocate+41
	DD	imagerel $unwind$??$_Reallocate_grow_by@V<lambda_1>@?4???$_Resize_and_overwrite@V<lambda_1>@?1???$to_string@DU?$char_traits@D@std@@V?$allocator@D@2@@?$bitset@$07@std@@QEBA?AV?$basic_string@DU?$char_traits@D@std@@V?$allocator@D@2@@3@DD@Z@@?$basic_string@DU?$char_traits@D@std@@V?$allocator@D@2@@std@@QEAAX_KV1?1???$to_string@DU?$char_traits@D@std@@V?$allocator@D@2@@?$bitset@$07@3@QEBA?AV23@DD@Z@@Z@$$V@?$basic_string@DU?$char_traits@D@std@@V?$allocator@D@2@@std@@AEAAAEAV01@_KV<lambda_1>@?4???$_Resize_and_overwrite@V<lambda_1>@?1???$to_string@DU?$char_traits@D@std@@V?$allocator@D@2@@?$bitset@$07@std@@QEBA?AV?$basic_string@DU?$char_traits@D@std@@V?$allocator@D@2@@3@DD@Z@@01@QEAAX0V2?1???$to_string@DU?$char_traits@D@std@@V?$allocator@D@2@@?$bitset@$07@1@QEBA?AV01@DD@Z@@Z@@Z
pdata	ENDS
;	COMDAT pdata
pdata	SEGMENT
$pdata$2$??$_Reallocate_grow_by@V<lambda_1>@?4???$_Resize_and_overwrite@V<lambda_1>@?1???$to_string@DU?$char_traits@D@std@@V?$allocator@D@2@@?$bitset@$07@std@@QEBA?AV?$basic_string@DU?$char_traits@D@std@@V?$allocator@D@2@@3@DD@Z@@?$basic_string@DU?$char_traits@D@std@@V?$allocator@D@2@@std@@QEAAX_KV1?1???$to_string@DU?$char_traits@D@std@@V?$allocator@D@2@@?$bitset@$07@3@QEBA?AV23@DD@Z@@Z@$$V@?$basic_string@DU?$char_traits@D@std@@V?$allocator@D@2@@std@@AEAAAEAV01@_KV<lambda_1>@?4???$_Resize_and_overwrite@V<lambda_1>@?1???$to_string@DU?$char_traits@D@std@@V?$allocator@D@2@@?$bitset@$07@std@@QEBA?AV?$basic_string@DU?$char_traits@D@std@@V?$allocator@D@2@@3@DD@Z@@01@QEAAX0V2?1???$to_string@DU?$char_traits@D@std@@V?$allocator@D@2@@?$bitset@$07@1@QEBA?AV01@DD@Z@@Z@@Z DD imagerel $LN125@Reallocate+41
	DD	imagerel $LN125@Reallocate+316
	DD	imagerel $chain$2$??$_Reallocate_grow_by@V<lambda_1>@?4???$_Resize_and_overwrite@V<lambda_1>@?1???$to_string@DU?$char_traits@D@std@@V?$allocator@D@2@@?$bitset@$07@std@@QEBA?AV?$basic_string@DU?$char_traits@D@std@@V?$allocator@D@2@@3@DD@Z@@?$basic_string@DU?$char_traits@D@std@@V?$allocator@D@2@@std@@QEAAX_KV1?1???$to_string@DU?$char_traits@D@std@@V?$allocator@D@2@@?$bitset@$07@3@QEBA?AV23@DD@Z@@Z@$$V@?$basic_string@DU?$char_traits@D@std@@V?$allocator@D@2@@std@@AEAAAEAV01@_KV<lambda_1>@?4???$_Resize_and_overwrite@V<lambda_1>@?1???$to_string@DU?$char_traits@D@std@@V?$allocator@D@2@@?$bitset@$07@std@@QEBA?AV?$basic_string@DU?$char_traits@D@std@@V?$allocator@D@2@@3@DD@Z@@01@QEAAX0V2?1???$to_string@DU?$char_traits@D@std@@V?$allocator@D@2@@?$bitset@$07@1@QEBA?AV01@DD@Z@@Z@@Z
pdata	ENDS
;	COMDAT pdata
pdata	SEGMENT
$pdata$3$??$_Reallocate_grow_by@V<lambda_1>@?4???$_Resize_and_overwrite@V<lambda_1>@?1???$to_string@DU?$char_traits@D@std@@V?$allocator@D@2@@?$bitset@$07@std@@QEBA?AV?$basic_string@DU?$char_traits@D@std@@V?$allocator@D@2@@3@DD@Z@@?$basic_string@DU?$char_traits@D@std@@V?$allocator@D@2@@std@@QEAAX_KV1?1???$to_string@DU?$char_traits@D@std@@V?$allocator@D@2@@?$bitset@$07@3@QEBA?AV23@DD@Z@@Z@$$V@?$basic_string@DU?$char_traits@D@std@@V?$allocator@D@2@@std@@AEAAAEAV01@_KV<lambda_1>@?4???$_Resize_and_overwrite@V<lambda_1>@?1???$to_string@DU?$char_traits@D@std@@V?$allocator@D@2@@?$bitset@$07@std@@QEBA?AV?$basic_string@DU?$char_traits@D@std@@V?$allocator@D@2@@3@DD@Z@@01@QEAAX0V2?1???$to_string@DU?$char_traits@D@std@@V?$allocator@D@2@@?$bitset@$07@1@QEBA?AV01@DD@Z@@Z@@Z DD imagerel $LN125@Reallocate+316
	DD	imagerel $LN125@Reallocate+322
	DD	imagerel $chain$3$??$_Reallocate_grow_by@V<lambda_1>@?4???$_Resize_and_overwrite@V<lambda_1>@?1???$to_string@DU?$char_traits@D@std@@V?$allocator@D@2@@?$bitset@$07@std@@QEBA?AV?$basic_string@DU?$char_traits@D@std@@V?$allocator@D@2@@3@DD@Z@@?$basic_string@DU?$char_traits@D@std@@V?$allocator@D@2@@std@@QEAAX_KV1?1???$to_string@DU?$char_traits@D@std@@V?$allocator@D@2@@?$bitset@$07@3@QEBA?AV23@DD@Z@@Z@$$V@?$basic_string@DU?$char_traits@D@std@@V?$allocator@D@2@@std@@AEAAAEAV01@_KV<lambda_1>@?4???$_Resize_and_overwrite@V<lambda_1>@?1???$to_string@DU?$char_traits@D@std@@V?$allocator@D@2@@?$bitset@$07@std@@QEBA?AV?$basic_string@DU?$char_traits@D@std@@V?$allocator@D@2@@3@DD@Z@@01@QEAAX0V2?1???$to_string@DU?$char_traits@D@std@@V?$allocator@D@2@@?$bitset@$07@1@QEBA?AV01@DD@Z@@Z@@Z
pdata	ENDS
;	COMDAT pdata
pdata	SEGMENT
$pdata$4$??$_Reallocate_grow_by@V<lambda_1>@?4???$_Resize_and_overwrite@V<lambda_1>@?1???$to_string@DU?$char_traits@D@std@@V?$allocator@D@2@@?$bitset@$07@std@@QEBA?AV?$basic_string@DU?$char_traits@D@std@@V?$allocator@D@2@@3@DD@Z@@?$basic_string@DU?$char_traits@D@std@@V?$allocator@D@2@@std@@QEAAX_KV1?1???$to_string@DU?$char_traits@D@std@@V?$allocator@D@2@@?$bitset@$07@3@QEBA?AV23@DD@Z@@Z@$$V@?$basic_string@DU?$char_traits@D@std@@V?$allocator@D@2@@std@@AEAAAEAV01@_KV<lambda_1>@?4???$_Resize_and_overwrite@V<lambda_1>@?1???$to_string@DU?$char_traits@D@std@@V?$allocator@D@2@@?$bitset@$07@std@@QEBA?AV?$basic_string@DU?$char_traits@D@std@@V?$allocator@D@2@@3@DD@Z@@01@QEAAX0V2?1???$to_string@DU?$char_traits@D@std@@V?$allocator@D@2@@?$bitset@$07@1@QEBA?AV01@DD@Z@@Z@@Z DD imagerel $LN125@Reallocate+322
	DD	imagerel $LN125@Reallocate+328
	DD	imagerel $chain$4$??$_Reallocate_grow_by@V<lambda_1>@?4???$_Resize_and_overwrite@V<lambda_1>@?1???$to_string@DU?$char_traits@D@std@@V?$allocator@D@2@@?$bitset@$07@std@@QEBA?AV?$basic_string@DU?$char_traits@D@std@@V?$allocator@D@2@@3@DD@Z@@?$basic_string@DU?$char_traits@D@std@@V?$allocator@D@2@@std@@QEAAX_KV1?1???$to_string@DU?$char_traits@D@std@@V?$allocator@D@2@@?$bitset@$07@3@QEBA?AV23@DD@Z@@Z@$$V@?$basic_string@DU?$char_traits@D@std@@V?$allocator@D@2@@std@@AEAAAEAV01@_KV<lambda_1>@?4???$_Resize_and_overwrite@V<lambda_1>@?1???$to_string@DU?$char_traits@D@std@@V?$allocator@D@2@@?$bitset@$07@std@@QEBA?AV?$basic_string@DU?$char_traits@D@std@@V?$allocator@D@2@@3@DD@Z@@01@QEAAX0V2?1???$to_string@DU?$char_traits@D@std@@V?$allocator@D@2@@?$bitset@$07@1@QEBA?AV01@DD@Z@@Z@@Z
pdata	ENDS
;	COMDAT pdata
pdata	SEGMENT
$pdata$??$_Get_size_of_n@$07@std@@YA_K_K@Z DD imagerel $LN7@Get_size_o
	DD	imagerel $LN7@Get_size_o+38
	DD	imagerel $unwind$??$_Get_size_of_n@$07@std@@YA_K_K@Z
pdata	ENDS
;	COMDAT pdata
pdata	SEGMENT
$pdata$??$_Copy_memmove@PEANPEAN@std@@YAPEANPEAN00@Z DD imagerel $LN4@Copy_memmo
	DD	imagerel $LN4@Copy_memmo+48
	DD	imagerel $unwind$??$_Copy_memmove@PEANPEAN@std@@YAPEANPEAN00@Z
pdata	ENDS
;	COMDAT pdata
pdata	SEGMENT
$pdata$??$_Sort_unchecked@PEANU?$less@X@std@@@std@@YAXPEAN0_JU?$less@X@0@@Z DD imagerel $LN147@Sort_unche
	DD	imagerel $LN147@Sort_unche+198
	DD	imagerel $unwind$??$_Sort_unchecked@PEANU?$less@X@std@@@std@@YAXPEAN0_JU?$less@X@0@@Z
pdata	ENDS
;	COMDAT pdata
pdata	SEGMENT
$pdata$0$??$_Sort_unchecked@PEANU?$less@X@std@@@std@@YAXPEAN0_JU?$less@X@0@@Z DD imagerel $LN147@Sort_unche+198
	DD	imagerel $LN147@Sort_unche+258
	DD	imagerel $chain$0$??$_Sort_unchecked@PEANU?$less@X@std@@@std@@YAXPEAN0_JU?$less@X@0@@Z
pdata	ENDS
;	COMDAT pdata
pdata	SEGMENT
$pdata$1$??$_Sort_unchecked@PEANU?$less@X@std@@@std@@YAXPEAN0_JU?$less@X@0@@Z DD imagerel $LN147@Sort_unche+258
	DD	imagerel $LN147@Sort_unche+695
	DD	imagerel $chain$1$??$_Sort_unchecked@PEANU?$less@X@std@@@std@@YAXPEAN0_JU?$less@X@0@@Z
pdata	ENDS
;	COMDAT pdata
pdata	SEGMENT
$pdata$2$??$_Sort_unchecked@PEANU?$less@X@std@@@std@@YAXPEAN0_JU?$less@X@0@@Z DD imagerel $LN147@Sort_unche+695
	DD	imagerel $LN147@Sort_unche+764
	DD	imagerel $chain$2$??$_Sort_unchecked@PEANU?$less@X@std@@@std@@YAXPEAN0_JU?$less@X@0@@Z
pdata	ENDS
;	COMDAT pdata
pdata	SEGMENT
$pdata$3$??$_Sort_unchecked@PEANU?$less@X@std@@@std@@YAXPEAN0_JU?$less@X@0@@Z DD imagerel $LN147@Sort_unche+764
	DD	imagerel $LN147@Sort_unche+777
	DD	imagerel $chain$3$??$_Sort_unchecked@PEANU?$less@X@std@@@std@@YAXPEAN0_JU?$less@X@0@@Z
pdata	ENDS
;	COMDAT pdata
pdata	SEGMENT
$pdata$??$_Copy_memmove@PEBHPEAH@std@@YAPEAHPEBH0PEAH@Z DD imagerel $LN4@Copy_memmo
	DD	imagerel $LN4@Copy_memmo+48
	DD	imagerel $unwind$??$_Copy_memmove@PEBHPEAH@std@@YAPEAHPEBH0PEAH@Z
pdata	ENDS
;	COMDAT pdata
pdata	SEGMENT
$pdata$??$_Resize_and_overwrite@V<lambda_1>@?1???$to_string@DU?$char_traits@D@std@@V?$allocator@D@2@@?$bitset@$07@std@@QEBA?AV?$basic_string@DU?$char_traits@D@std@@V?$allocator@D@2@@3@DD@Z@@?$basic_string@DU?$char_traits@D@std@@V?$allocator@D@2@@std@@QEAAX_KV<lambda_1>@?1???$to_string@DU?$char_traits@D@std@@V?$allocator@D@2@@?$bitset@$07@1@QEBA?AV01@DD@Z@@Z DD imagerel $LN66@Resize_and
	DD	imagerel $LN66@Resize_and+262
	DD	imagerel $unwind$??$_Resize_and_overwrite@V<lambda_1>@?1???$to_string@DU?$char_traits@D@std@@V?$allocator@D@2@@?$bitset@$07@std@@QEBA?AV?$basic_string@DU?$char_traits@D@std@@V?$allocator@D@2@@3@DD@Z@@?$basic_string@DU?$char_traits@D@std@@V?$allocator@D@2@@std@@QEAAX_KV<lambda_1>@?1???$to_string@DU?$char_traits@D@std@@V?$allocator@D@2@@?$bitset@$07@1@QEBA?AV01@DD@Z@@Z
pdata	ENDS
;	COMDAT pdata
pdata	SEGMENT
$pdata$?allocate@?$allocator@N@std@@QEAAPEAN_K@Z DD imagerel $LN32@allocate
	DD	imagerel $LN32@allocate+112
	DD	imagerel $unwind$?allocate@?$allocator@N@std@@QEAAPEAN_K@Z
pdata	ENDS
;	COMDAT pdata
pdata	SEGMENT
$pdata$??_G?$vector@HV?$allocator@H@std@@@std@@QEAAPEAXI@Z DD imagerel $LN37@scalar
	DD	imagerel $LN37@scalar+95
	DD	imagerel $unwind$??_G?$vector@HV?$allocator@H@std@@@std@@QEAAPEAXI@Z
pdata	ENDS
;	COMDAT pdata
pdata	SEGMENT
$pdata$??$_Emplace_reallocate@AEBN@?$vector@NV?$allocator@N@std@@@std@@AEAAPEANQEANAEBN@Z DD imagerel $LN170@Emplace_re
	DD	imagerel $LN170@Emplace_re+70
	DD	imagerel $unwind$??$_Emplace_reallocate@AEBN@?$vector@NV?$allocator@N@std@@@std@@AEAAPEANQEANAEBN@Z
pdata	ENDS
;	COMDAT pdata
pdata	SEGMENT
$pdata$3$??$_Emplace_reallocate@AEBN@?$vector@NV?$allocator@N@std@@@std@@AEAAPEANQEANAEBN@Z DD imagerel $LN170@Emplace_re+70
	DD	imagerel $LN170@Emplace_re+391
	DD	imagerel $chain$3$??$_Emplace_reallocate@AEBN@?$vector@NV?$allocator@N@std@@@std@@AEAAPEANQEANAEBN@Z
pdata	ENDS
;	COMDAT pdata
pdata	SEGMENT
$pdata$5$??$_Emplace_reallocate@AEBN@?$vector@NV?$allocator@N@std@@@std@@AEAAPEANQEANAEBN@Z DD imagerel $LN170@Emplace_re+391
	DD	imagerel $LN170@Emplace_re+398
	DD	imagerel $chain$5$??$_Emplace_reallocate@AEBN@?$vector@NV?$allocator@N@std@@@std@@AEAAPEANQEANAEBN@Z
pdata	ENDS
;	COMDAT pdata
pdata	SEGMENT
$pdata$6$??$_Emplace_reallocate@AEBN@?$vector@NV?$allocator@N@std@@@std@@AEAAPEANQEANAEBN@Z DD imagerel $LN170@Emplace_re+398
	DD	imagerel $LN170@Emplace_re+404
	DD	imagerel $chain$6$??$_Emplace_reallocate@AEBN@?$vector@NV?$allocator@N@std@@@std@@AEAAPEANQEANAEBN@Z
pdata	ENDS
;	COMDAT pdata
pdata	SEGMENT
$pdata$7$??$_Emplace_reallocate@AEBN@?$vector@NV?$allocator@N@std@@@std@@AEAAPEANQEANAEBN@Z DD imagerel $LN170@Emplace_re+404
	DD	imagerel $LN170@Emplace_re+410
	DD	imagerel $chain$7$??$_Emplace_reallocate@AEBN@?$vector@NV?$allocator@N@std@@@std@@AEAAPEANQEANAEBN@Z
pdata	ENDS
;	COMDAT pdata
pdata	SEGMENT
$pdata$??$_Uninitialized_move@PEANV?$allocator@N@std@@@std@@YAPEANQEAN0PEANAEAV?$allocator@N@0@@Z DD imagerel $LN27@Uninitiali
	DD	imagerel $LN27@Uninitiali+52
	DD	imagerel $unwind$??$_Uninitialized_move@PEANV?$allocator@N@std@@@std@@YAPEANQEAN0PEANAEAV?$allocator@N@0@@Z
pdata	ENDS
;	COMDAT pdata
pdata	SEGMENT
$pdata$??$_Allocate_at_least_helper@V?$allocator@N@std@@@std@@YAPEANAEAV?$allocator@N@0@AEA_K@Z DD imagerel $LN35@Allocate_a
	DD	imagerel $LN35@Allocate_a+115
	DD	imagerel $unwind$??$_Allocate_at_least_helper@V?$allocator@N@std@@@std@@YAPEANAEAV?$allocator@N@0@AEA_K@Z
pdata	ENDS
;	COMDAT pdata
pdata	SEGMENT
$pdata$??$_Copy_unchecked@PEBHPEBHPEAH@std@@YAPEAHPEBH0PEAH@Z DD imagerel $LN16@Copy_unche
	DD	imagerel $LN16@Copy_unche+48
	DD	imagerel $unwind$??$_Copy_unchecked@PEBHPEBHPEAH@std@@YAPEAHPEBH0PEAH@Z
pdata	ENDS
;	COMDAT pdata
pdata	SEGMENT
$pdata$??$to_string@DU?$char_traits@D@std@@V?$allocator@D@2@@?$bitset@$07@std@@QEBA?AV?$basic_string@DU?$char_traits@D@std@@V?$allocator@D@2@@1@DD@Z DD imagerel $LN72@to_string
	DD	imagerel $LN72@to_string+186
	DD	imagerel $unwind$??$to_string@DU?$char_traits@D@std@@V?$allocator@D@2@@?$bitset@$07@std@@QEBA?AV?$basic_string@DU?$char_traits@D@std@@V?$allocator@D@2@@1@DD@Z
pdata	ENDS
;	COMDAT pdata
pdata	SEGMENT
$pdata$?dtor$0@?0???$to_string@DU?$char_traits@D@std@@V?$allocator@D@2@@?$bitset@$07@std@@QEBA?AV?$basic_string@DU?$char_traits@D@std@@V?$allocator@D@2@@1@DD@Z@4HA DD imagerel ?dtor$0@?0???$to_string@DU?$char_traits@D@std@@V?$allocator@D@2@@?$bitset@$07@std@@QEBA?AV?$basic_string@DU?$char_traits@D@std@@V?$allocator@D@2@@1@DD@Z@4HA
	DD	imagerel ?dtor$0@?0???$to_string@DU?$char_traits@D@std@@V?$allocator@D@2@@?$bitset@$07@std@@QEBA?AV?$basic_string@DU?$char_traits@D@std@@V?$allocator@D@2@@1@DD@Z@4HA+38
	DD	imagerel $unwind$?dtor$0@?0???$to_string@DU?$char_traits@D@std@@V?$allocator@D@2@@?$bitset@$07@std@@QEBA?AV?$basic_string@DU?$char_traits@D@std@@V?$allocator@D@2@@1@DD@Z@4HA
pdata	ENDS
;	COMDAT pdata
pdata	SEGMENT
$pdata$??$destroy_at@V?$vector@HV?$allocator@H@std@@@std@@@std@@YAXQEAV?$vector@HV?$allocator@H@std@@@0@@Z DD imagerel $LN40@destroy_at
	DD	imagerel $LN40@destroy_at+92
	DD	imagerel $unwind$??$destroy_at@V?$vector@HV?$allocator@H@std@@@std@@@std@@YAXQEAV?$vector@HV?$allocator@H@std@@@0@@Z
pdata	ENDS
;	COMDAT pdata
pdata	SEGMENT
$pdata$?_Change_array@?$vector@NV?$allocator@N@std@@@std@@AEAAXQEAN_K1@Z DD imagerel $LN30@Change_arr
	DD	imagerel $LN30@Change_arr+136
	DD	imagerel $unwind$?_Change_array@?$vector@NV?$allocator@N@std@@@std@@AEAAXQEAN_K1@Z
pdata	ENDS
;	COMDAT pdata
pdata	SEGMENT
$pdata$??$_Get_size_of_n@$0BI@@std@@YA_K_K@Z DD imagerel $LN7@Get_size_o
	DD	imagerel $LN7@Get_size_o+38
	DD	imagerel $unwind$??$_Get_size_of_n@$0BI@@std@@YA_K_K@Z
pdata	ENDS
;	COMDAT pdata
pdata	SEGMENT
$pdata$??$_Get_size_of_n@$03@std@@YA_K_K@Z DD imagerel $LN7@Get_size_o
	DD	imagerel $LN7@Get_size_o+38
	DD	imagerel $unwind$??$_Get_size_of_n@$03@std@@YA_K_K@Z
pdata	ENDS
;	COMDAT pdata
pdata	SEGMENT
$pdata$??$_Reallocate@$0A@@?$vector@NV?$allocator@N@std@@@std@@AEAAXAEA_K@Z DD imagerel $LN100@Reallocate
	DD	imagerel $LN100@Reallocate+253
	DD	imagerel $unwind$??$_Reallocate@$0A@@?$vector@NV?$allocator@N@std@@@std@@AEAAXAEA_K@Z
pdata	ENDS
;	COMDAT pdata
pdata	SEGMENT
$pdata$??$copy@V?$_Vector_const_iterator@V?$_Vector_val@U?$_Simple_types@H@std@@@std@@@std@@V?$_Vector_iterator@V?$_Vector_val@U?$_Simple_types@H@std@@@std@@@2@@std@@YA?AV?$_Vector_iterator@V?$_Vector_val@U?$_Simple_types@H@std@@@std@@@0@V?$_Vector_const_iterator@V?$_Vector_val@U?$_Simple_types@H@std@@@std@@@0@0V10@@Z DD imagerel $LN20@copy
	DD	imagerel $LN20@copy+64
	DD	imagerel $unwind$??$copy@V?$_Vector_const_iterator@V?$_Vector_val@U?$_Simple_types@H@std@@@std@@@std@@V?$_Vector_iterator@V?$_Vector_val@U?$_Simple_types@H@std@@@std@@@2@@std@@YA?AV?$_Vector_iterator@V?$_Vector_val@U?$_Simple_types@H@std@@@std@@@0@V?$_Vector_const_iterator@V?$_Vector_val@U?$_Simple_types@H@std@@@std@@@0@0V10@@Z
pdata	ENDS
;	COMDAT pdata
pdata	SEGMENT
$pdata$??$?6DU?$char_traits@D@std@@$07@std@@YAAEAV?$basic_ostream@DU?$char_traits@D@std@@@0@AEAV10@AEBV?$bitset@$07@0@@Z DD imagerel $LN161@operator
	DD	imagerel $LN161@operator+603
	DD	imagerel $unwind$??$?6DU?$char_traits@D@std@@$07@std@@YAAEAV?$basic_ostream@DU?$char_traits@D@std@@@0@AEAV10@AEBV?$bitset@$07@0@@Z
pdata	ENDS
;	COMDAT pdata
pdata	SEGMENT
$pdata$?dtor$4@?0???$?6DU?$char_traits@D@std@@$07@std@@YAAEAV?$basic_ostream@DU?$char_traits@D@std@@@0@AEAV10@AEBV?$bitset@$07@0@@Z@4HA DD imagerel ?dtor$4@?0???$?6DU?$char_traits@D@std@@$07@std@@YAAEAV?$basic_ostream@DU?$char_traits@D@std@@@0@AEAV10@AEBV?$bitset@$07@0@@Z@4HA
	DD	imagerel ?dtor$4@?0???$?6DU?$char_traits@D@std@@$07@std@@YAAEAV?$basic_ostream@DU?$char_traits@D@std@@@0@AEAV10@AEBV?$bitset@$07@0@@Z@4HA+38
	DD	imagerel $unwind$?dtor$4@?0???$?6DU?$char_traits@D@std@@$07@std@@YAAEAV?$basic_ostream@DU?$char_traits@D@std@@@0@AEAV10@AEBV?$bitset@$07@0@@Z@4HA
pdata	ENDS
;	COMDAT pdata
pdata	SEGMENT
$pdata$??$destroy@V?$vector@HV?$allocator@H@std@@@std@@@?$_Default_allocator_traits@V?$allocator@V?$vector@HV?$allocator@H@std@@@std@@@std@@@std@@SAXAEAV?$allocator@V?$vector@HV?$allocator@H@std@@@std@@@1@QEAV?$vector@HV?$allocator@H@std@@@1@@Z DD imagerel $LN43@destroy
	DD	imagerel $LN43@destroy+92
	DD	imagerel $unwind$??$destroy@V?$vector@HV?$allocator@H@std@@@std@@@?$_Default_allocator_traits@V?$allocator@V?$vector@HV?$allocator@H@std@@@std@@@std@@@std@@SAXAEAV?$allocator@V?$vector@HV?$allocator@H@std@@@std@@@1@QEAV?$vector@HV?$allocator@H@std@@@1@@Z
pdata	ENDS
;	COMDAT pdata
pdata	SEGMENT
$pdata$??$_Copy_memmove@PEAHPEAH@std@@YAPEAHPEAH00@Z DD imagerel $LN4@Copy_memmo
	DD	imagerel $LN4@Copy_memmo+48
	DD	imagerel $unwind$??$_Copy_memmove@PEAHPEAH@std@@YAPEAHPEAH00@Z
pdata	ENDS
;	COMDAT pdata
pdata	SEGMENT
$pdata$??$use_facet@V?$ctype@D@std@@@std@@YAAEBV?$ctype@D@0@AEBVlocale@0@@Z DD imagerel $LN41@use_facet
	DD	imagerel $LN41@use_facet+269
	DD	imagerel $unwind$??$use_facet@V?$ctype@D@std@@@std@@YAAEBV?$ctype@D@0@AEBVlocale@0@@Z
pdata	ENDS
;	COMDAT pdata
pdata	SEGMENT
$pdata$?assign@?$_Char_traits@DH@std@@SAPEADQEAD_KD@Z DD imagerel $LN25@assign
	DD	imagerel $LN25@assign+38
	DD	imagerel $unwind$?assign@?$_Char_traits@DH@std@@SAPEADQEAD_KD@Z
pdata	ENDS
;	COMDAT pdata
pdata	SEGMENT
$pdata$?deallocate@?$allocator@N@std@@QEAAXQEAN_K@Z DD imagerel $LN23@deallocate
	DD	imagerel $LN23@deallocate+67
	DD	imagerel $unwind$?deallocate@?$allocator@N@std@@QEAAXQEAN_K@Z
pdata	ENDS
;	COMDAT pdata
pdata	SEGMENT
$pdata$?deallocate@?$allocator@V?$vector@HV?$allocator@H@std@@@std@@@std@@QEAAXQEAV?$vector@HV?$allocator@H@std@@@2@_K@Z DD imagerel $LN23@deallocate
	DD	imagerel $LN23@deallocate+67
	DD	imagerel $unwind$?deallocate@?$allocator@V?$vector@HV?$allocator@H@std@@@std@@@std@@QEAAXQEAV?$vector@HV?$allocator@H@std@@@2@_K@Z
pdata	ENDS
;	COMDAT pdata
pdata	SEGMENT
$pdata$?deallocate@?$allocator@H@std@@QEAAXQEAH_K@Z DD imagerel $LN23@deallocate
	DD	imagerel $LN23@deallocate+67
	DD	imagerel $unwind$?deallocate@?$allocator@H@std@@QEAAXQEAH_K@Z
pdata	ENDS
;	COMDAT pdata
pdata	SEGMENT
$pdata$?_Tidy@?$vector@NV?$allocator@N@std@@@std@@AEAAXXZ DD imagerel $LN30@Tidy
	DD	imagerel $LN30@Tidy+92
	DD	imagerel $unwind$?_Tidy@?$vector@NV?$allocator@N@std@@@std@@AEAAXXZ
pdata	ENDS
;	COMDAT pdata
pdata	SEGMENT
$pdata$?_Xlength@?$vector@NV?$allocator@N@std@@@std@@CAXXZ DD imagerel $LN4@Xlength
	DD	imagerel $LN4@Xlength+18
	DD	imagerel $unwind$?_Xlength@?$vector@NV?$allocator@N@std@@@std@@CAXXZ
pdata	ENDS
;	COMDAT pdata
pdata	SEGMENT
$pdata$?allocate@?$allocator@V?$vector@HV?$allocator@H@std@@@std@@@std@@QEAAPEAV?$vector@HV?$allocator@H@std@@@2@_K@Z DD imagerel $LN32@allocate
	DD	imagerel $LN32@allocate+116
	DD	imagerel $unwind$?allocate@?$allocator@V?$vector@HV?$allocator@H@std@@@std@@@std@@QEAAPEAV?$vector@HV?$allocator@H@std@@@2@_K@Z
pdata	ENDS
;	COMDAT pdata
pdata	SEGMENT
$pdata$?_Tidy@?$vector@V?$vector@HV?$allocator@H@std@@@std@@V?$allocator@V?$vector@HV?$allocator@H@std@@@std@@@2@@std@@AEAAXXZ DD imagerel $LN30@Tidy
	DD	imagerel $LN30@Tidy+135
	DD	imagerel $unwind$?_Tidy@?$vector@V?$vector@HV?$allocator@H@std@@@std@@V?$allocator@V?$vector@HV?$allocator@H@std@@@std@@@2@@std@@AEAAXXZ
pdata	ENDS
;	COMDAT pdata
pdata	SEGMENT
$pdata$?_Xlength@?$vector@V?$vector@HV?$allocator@H@std@@@std@@V?$allocator@V?$vector@HV?$allocator@H@std@@@std@@@2@@std@@CAXXZ DD imagerel $LN4@Xlength
	DD	imagerel $LN4@Xlength+18
	DD	imagerel $unwind$?_Xlength@?$vector@V?$vector@HV?$allocator@H@std@@@std@@V?$allocator@V?$vector@HV?$allocator@H@std@@@std@@@2@@std@@CAXXZ
pdata	ENDS
;	COMDAT pdata
pdata	SEGMENT
$pdata$?allocate@?$allocator@H@std@@QEAAPEAH_K@Z DD imagerel $LN32@allocate
	DD	imagerel $LN32@allocate+112
	DD	imagerel $unwind$?allocate@?$allocator@H@std@@QEAAPEAH_K@Z
pdata	ENDS
;	COMDAT pdata
pdata	SEGMENT
$pdata$??1?$vector@HV?$allocator@H@std@@@std@@QEAA@XZ DD imagerel $LN33@vector
	DD	imagerel $LN33@vector+92
	DD	imagerel $unwind$??1?$vector@HV?$allocator@H@std@@@std@@QEAA@XZ
pdata	ENDS
;	COMDAT pdata
pdata	SEGMENT
$pdata$?_Tidy@?$vector@HV?$allocator@H@std@@@std@@AEAAXXZ DD imagerel $LN30@Tidy
	DD	imagerel $LN30@Tidy+92
	DD	imagerel $unwind$?_Tidy@?$vector@HV?$allocator@H@std@@@std@@AEAAXXZ
pdata	ENDS
;	COMDAT pdata
pdata	SEGMENT
$pdata$?_Xlength@?$vector@HV?$allocator@H@std@@@std@@CAXXZ DD imagerel $LN4@Xlength
	DD	imagerel $LN4@Xlength+18
	DD	imagerel $unwind$?_Xlength@?$vector@HV?$allocator@H@std@@@std@@CAXXZ
pdata	ENDS
;	COMDAT pdata
pdata	SEGMENT
$pdata$??1?$vector@NV?$allocator@N@std@@@std@@QEAA@XZ DD imagerel $LN33@vector
	DD	imagerel $LN33@vector+92
	DD	imagerel $unwind$??1?$vector@NV?$allocator@N@std@@@std@@QEAA@XZ
pdata	ENDS
;	COMDAT pdata
pdata	SEGMENT
$pdata$?reserve@?$vector@NV?$allocator@N@std@@@std@@QEAAX_K@Z DD imagerel $LN11@reserve
	DD	imagerel $LN11@reserve+89
	DD	imagerel $unwind$?reserve@?$vector@NV?$allocator@N@std@@@std@@QEAAX_K@Z
pdata	ENDS
;	COMDAT pdata
pdata	SEGMENT
$pdata$?do_solve@qns@@YAX_KAEAV?$vector@HV?$allocator@H@std@@@std@@H@Z DD imagerel $LN124@do_solve
	DD	imagerel $LN124@do_solve+108
	DD	imagerel $unwind$?do_solve@qns@@YAX_KAEAV?$vector@HV?$allocator@H@std@@@std@@H@Z
pdata	ENDS
;	COMDAT pdata
pdata	SEGMENT
$pdata$1$?do_solve@qns@@YAX_KAEAV?$vector@HV?$allocator@H@std@@@std@@H@Z DD imagerel $LN124@do_solve+108
	DD	imagerel $LN124@do_solve+189
	DD	imagerel $chain$1$?do_solve@qns@@YAX_KAEAV?$vector@HV?$allocator@H@std@@@std@@H@Z
pdata	ENDS
;	COMDAT pdata
pdata	SEGMENT
$pdata$3$?do_solve@qns@@YAX_KAEAV?$vector@HV?$allocator@H@std@@@std@@H@Z DD imagerel $LN124@do_solve+189
	DD	imagerel $LN124@do_solve+557
	DD	imagerel $chain$3$?do_solve@qns@@YAX_KAEAV?$vector@HV?$allocator@H@std@@@std@@H@Z
pdata	ENDS
;	COMDAT pdata
pdata	SEGMENT
$pdata$4$?do_solve@qns@@YAX_KAEAV?$vector@HV?$allocator@H@std@@@std@@H@Z DD imagerel $LN124@do_solve+557
	DD	imagerel $LN124@do_solve+567
	DD	imagerel $chain$4$?do_solve@qns@@YAX_KAEAV?$vector@HV?$allocator@H@std@@@std@@H@Z
pdata	ENDS
;	COMDAT pdata
pdata	SEGMENT
$pdata$5$?do_solve@qns@@YAX_KAEAV?$vector@HV?$allocator@H@std@@@std@@H@Z DD imagerel $LN124@do_solve+567
	DD	imagerel $LN124@do_solve+587
	DD	imagerel $chain$5$?do_solve@qns@@YAX_KAEAV?$vector@HV?$allocator@H@std@@@std@@H@Z
pdata	ENDS
;	COMDAT pdata
pdata	SEGMENT
$pdata$?not_threatened_rows@threats@qns@@YAAEBV?$vector@HV?$allocator@H@std@@@std@@_KH@Z DD imagerel $LN44@not_threat
	DD	imagerel $LN44@not_threat+353
	DD	imagerel $unwind$?not_threatened_rows@threats@qns@@YAAEBV?$vector@HV?$allocator@H@std@@@std@@_KH@Z
pdata	ENDS
;	COMDAT pdata
pdata	SEGMENT
$pdata$??__Esafe_indices@threats@qns@@YAXXZ DD imagerel ??__Esafe_indices@threats@qns@@YAXXZ
	DD	imagerel ??__Esafe_indices@threats@qns@@YAXXZ+973
	DD	imagerel $unwind$??__Esafe_indices@threats@qns@@YAXXZ
pdata	ENDS
;	COMDAT pdata
pdata	SEGMENT
$pdata$?dtor$8@?0???__Esafe_indices@threats@qns@@YAXXZ@4HA DD imagerel ?dtor$8@?0???__Esafe_indices@threats@qns@@YAXXZ@4HA
	DD	imagerel ?dtor$8@?0???__Esafe_indices@threats@qns@@YAXXZ@4HA+42
	DD	imagerel $unwind$?dtor$8@?0???__Esafe_indices@threats@qns@@YAXXZ@4HA
pdata	ENDS
;	COMDAT pdata
pdata	SEGMENT
$pdata$??$_Uninitialized_copy@PEBV?$vector@HV?$allocator@H@std@@@std@@PEBV12@V?$allocator@V?$vector@HV?$allocator@H@std@@@std@@@2@@std@@YAPEAV?$vector@HV?$allocator@H@std@@@0@PEBV10@0PEAV10@AEAV?$allocator@V?$vector@HV?$allocator@H@std@@@std@@@0@@Z DD imagerel $LN27@Uninitiali
	DD	imagerel $LN27@Uninitiali+139
	DD	imagerel $unwind$??$_Uninitialized_copy@PEBV?$vector@HV?$allocator@H@std@@@std@@PEBV12@V?$allocator@V?$vector@HV?$allocator@H@std@@@std@@@2@@std@@YAPEAV?$vector@HV?$allocator@H@std@@@0@PEBV10@0PEAV10@AEAV?$allocator@V?$vector@HV?$allocator@H@std@@@std@@@0@@Z
pdata	ENDS
;	COMDAT pdata
pdata	SEGMENT
$pdata$??$_Construct_n@PEBV?$vector@HV?$allocator@H@std@@@std@@PEBV12@@?$vector@V?$vector@HV?$allocator@H@std@@@std@@V?$allocator@V?$vector@HV?$allocator@H@std@@@std@@@2@@std@@AEAAX_K$$QEAPEBV?$vector@HV?$allocator@H@std@@@1@1@Z DD imagerel $LN35@Construct_
	DD	imagerel $LN35@Construct_+170
	DD	imagerel $unwind$??$_Construct_n@PEBV?$vector@HV?$allocator@H@std@@@std@@PEBV12@@?$vector@V?$vector@HV?$allocator@H@std@@@std@@V?$allocator@V?$vector@HV?$allocator@H@std@@@std@@@2@@std@@AEAAX_K$$QEAPEBV?$vector@HV?$allocator@H@std@@@1@1@Z
pdata	ENDS
;	COMDAT pdata
pdata	SEGMENT
$pdata$??0?$vector@V?$vector@HV?$allocator@H@std@@@std@@V?$allocator@V?$vector@HV?$allocator@H@std@@@std@@@2@@std@@QEAA@V?$initializer_list@V?$vector@HV?$allocator@H@std@@@std@@@1@AEBV?$allocator@V?$vector@HV?$allocator@H@std@@@std@@@1@@Z DD imagerel $LN43@vector
	DD	imagerel $LN43@vector+205
	DD	imagerel $unwind$??0?$vector@V?$vector@HV?$allocator@H@std@@@std@@V?$allocator@V?$vector@HV?$allocator@H@std@@@std@@@2@@std@@QEAA@V?$initializer_list@V?$vector@HV?$allocator@H@std@@@std@@@1@AEBV?$allocator@V?$vector@HV?$allocator@H@std@@@std@@@1@@Z
pdata	ENDS
;	COMDAT pdata
pdata	SEGMENT
$pdata$?show_map@qns@@YAX_K@Z DD imagerel $LN189@show_map
	DD	imagerel $LN189@show_map+462
	DD	imagerel $unwind$?show_map@qns@@YAX_K@Z
pdata	ENDS
;	COMDAT pdata
pdata	SEGMENT
$pdata$??__Esolutions@qns@@YAXXZ DD imagerel ??__Esolutions@qns@@YAXXZ
	DD	imagerel ??__Esolutions@qns@@YAXXZ+333
	DD	imagerel $unwind$??__Esolutions@qns@@YAXXZ
pdata	ENDS
;	COMDAT pdata
pdata	SEGMENT
$pdata$??$_Destroy_range@V?$allocator@V?$vector@HV?$allocator@H@std@@@std@@@std@@@std@@YAXPEAV?$vector@HV?$allocator@H@std@@@0@QEAV10@AEAV?$allocator@V?$vector@HV?$allocator@H@std@@@std@@@0@@Z DD imagerel $LN57@Destroy_ra
	DD	imagerel $LN57@Destroy_ra+15
	DD	imagerel $unwind$??$_Destroy_range@V?$allocator@V?$vector@HV?$allocator@H@std@@@std@@@std@@@std@@YAXPEAV?$vector@HV?$allocator@H@std@@@0@QEAV10@AEAV?$allocator@V?$vector@HV?$allocator@H@std@@@std@@@0@@Z
pdata	ENDS
;	COMDAT pdata
pdata	SEGMENT
$pdata$0$??$_Destroy_range@V?$allocator@V?$vector@HV?$allocator@H@std@@@std@@@std@@@std@@YAXPEAV?$vector@HV?$allocator@H@std@@@0@QEAV10@AEAV?$allocator@V?$vector@HV?$allocator@H@std@@@std@@@0@@Z DD imagerel $LN57@Destroy_ra+15
	DD	imagerel $LN57@Destroy_ra+124
	DD	imagerel $chain$0$??$_Destroy_range@V?$allocator@V?$vector@HV?$allocator@H@std@@@std@@@std@@@std@@YAXPEAV?$vector@HV?$allocator@H@std@@@0@QEAV10@AEAV?$allocator@V?$vector@HV?$allocator@H@std@@@std@@@0@@Z
pdata	ENDS
;	COMDAT pdata
pdata	SEGMENT
$pdata$1$??$_Destroy_range@V?$allocator@V?$vector@HV?$allocator@H@std@@@std@@@std@@@std@@YAXPEAV?$vector@HV?$allocator@H@std@@@0@QEAV10@AEAV?$allocator@V?$vector@HV?$allocator@H@std@@@std@@@0@@Z DD imagerel $LN57@Destroy_ra+124
	DD	imagerel $LN57@Destroy_ra+125
	DD	imagerel $chain$1$??$_Destroy_range@V?$allocator@V?$vector@HV?$allocator@H@std@@@std@@@std@@@std@@YAXPEAV?$vector@HV?$allocator@H@std@@@0@QEAV10@AEAV?$allocator@V?$vector@HV?$allocator@H@std@@@std@@@0@@Z
pdata	ENDS
;	COMDAT pdata
pdata	SEGMENT
$pdata$2$??$_Destroy_range@V?$allocator@V?$vector@HV?$allocator@H@std@@@std@@@std@@@std@@YAXPEAV?$vector@HV?$allocator@H@std@@@0@QEAV10@AEAV?$allocator@V?$vector@HV?$allocator@H@std@@@std@@@0@@Z DD imagerel $LN57@Destroy_ra+125
	DD	imagerel $LN57@Destroy_ra+132
	DD	imagerel $chain$2$??$_Destroy_range@V?$allocator@V?$vector@HV?$allocator@H@std@@@std@@@std@@@std@@YAXPEAV?$vector@HV?$allocator@H@std@@@0@QEAV10@AEAV?$allocator@V?$vector@HV?$allocator@H@std@@@std@@@0@@Z
pdata	ENDS
;	COMDAT pdata
pdata	SEGMENT
$pdata$??$_Uninitialized_copy@PEAHPEAHV?$allocator@H@std@@@std@@YAPEAHPEAH00AEAV?$allocator@H@0@@Z DD imagerel $LN23@Uninitiali
	DD	imagerel $LN23@Uninitiali+52
	DD	imagerel $unwind$??$_Uninitialized_copy@PEAHPEAHV?$allocator@H@std@@@std@@YAPEAHPEAH00AEAV?$allocator@H@0@@Z
pdata	ENDS
;	COMDAT pdata
pdata	SEGMENT
$pdata$??$_Construct_n@AEBQEAHAEBQEAH@?$vector@HV?$allocator@H@std@@@std@@AEAAX_KAEBQEAH1@Z DD imagerel $LN57@Construct_
	DD	imagerel $LN57@Construct_+16
	DD	imagerel $unwind$??$_Construct_n@AEBQEAHAEBQEAH@?$vector@HV?$allocator@H@std@@@std@@AEAAX_KAEBQEAH1@Z
pdata	ENDS
;	COMDAT pdata
pdata	SEGMENT
$pdata$0$??$_Construct_n@AEBQEAHAEBQEAH@?$vector@HV?$allocator@H@std@@@std@@AEAAX_KAEBQEAH1@Z DD imagerel $LN57@Construct_+16
	DD	imagerel $LN57@Construct_+80
	DD	imagerel $chain$0$??$_Construct_n@AEBQEAHAEBQEAH@?$vector@HV?$allocator@H@std@@@std@@AEAAX_KAEBQEAH1@Z
pdata	ENDS
;	COMDAT pdata
pdata	SEGMENT
$pdata$1$??$_Construct_n@AEBQEAHAEBQEAH@?$vector@HV?$allocator@H@std@@@std@@AEAAX_KAEBQEAH1@Z DD imagerel $LN57@Construct_+80
	DD	imagerel $LN57@Construct_+81
	DD	imagerel $chain$1$??$_Construct_n@AEBQEAHAEBQEAH@?$vector@HV?$allocator@H@std@@@std@@AEAAX_KAEBQEAH1@Z
pdata	ENDS
;	COMDAT pdata
pdata	SEGMENT
$pdata$??0?$vector@HV?$allocator@H@std@@@std@@QEAA@AEBV01@@Z DD imagerel $LN64@vector
	DD	imagerel $LN64@vector+45
	DD	imagerel $unwind$??0?$vector@HV?$allocator@H@std@@@std@@QEAA@AEBV01@@Z
pdata	ENDS
;	COMDAT pdata
pdata	SEGMENT
$pdata$0$??0?$vector@HV?$allocator@H@std@@@std@@QEAA@AEBV01@@Z DD imagerel $LN64@vector+45
	DD	imagerel $LN64@vector+96
	DD	imagerel $chain$0$??0?$vector@HV?$allocator@H@std@@@std@@QEAA@AEBV01@@Z
pdata	ENDS
;	COMDAT pdata
pdata	SEGMENT
$pdata$1$??0?$vector@HV?$allocator@H@std@@@std@@QEAA@AEBV01@@Z DD imagerel $LN64@vector+96
	DD	imagerel $LN64@vector+110
	DD	imagerel $chain$1$??0?$vector@HV?$allocator@H@std@@@std@@QEAA@AEBV01@@Z
pdata	ENDS
;	COMDAT pdata
pdata	SEGMENT
$pdata$??$_Emplace_back@AEBV?$vector@HV?$allocator@H@std@@@std@@@?$_Uninitialized_backout_al@V?$allocator@V?$vector@HV?$allocator@H@std@@@std@@@std@@@std@@QEAAXAEBV?$vector@HV?$allocator@H@std@@@1@@Z DD imagerel $LN8@Emplace_ba
	DD	imagerel $LN8@Emplace_ba+29
	DD	imagerel $unwind$??$_Emplace_back@AEBV?$vector@HV?$allocator@H@std@@@std@@@?$_Uninitialized_backout_al@V?$allocator@V?$vector@HV?$allocator@H@std@@@std@@@std@@@std@@QEAAXAEBV?$vector@HV?$allocator@H@std@@@1@@Z
pdata	ENDS
;	COMDAT pdata
pdata	SEGMENT
$pdata$??$_Uninitialized_fill_n@V?$allocator@V?$vector@HV?$allocator@H@std@@@std@@@std@@@std@@YAPEAV?$vector@HV?$allocator@H@std@@@0@PEAV10@_KAEBV10@AEAV?$allocator@V?$vector@HV?$allocator@H@std@@@std@@@0@@Z DD imagerel $LN27@Uninitiali
	DD	imagerel $LN27@Uninitiali+136
	DD	imagerel $unwind$??$_Uninitialized_fill_n@V?$allocator@V?$vector@HV?$allocator@H@std@@@std@@@std@@@std@@YAPEAV?$vector@HV?$allocator@H@std@@@0@PEAV10@_KAEBV10@AEAV?$allocator@V?$vector@HV?$allocator@H@std@@@std@@@0@@Z
pdata	ENDS
;	COMDAT pdata
pdata	SEGMENT
$pdata$??$_Allocate_at_least_helper@V?$allocator@V?$vector@HV?$allocator@H@std@@@std@@@std@@@std@@YAPEAV?$vector@HV?$allocator@H@std@@@0@AEAV?$allocator@V?$vector@HV?$allocator@H@std@@@std@@@0@AEA_K@Z DD imagerel $LN35@Allocate_a
	DD	imagerel $LN35@Allocate_a+119
	DD	imagerel $unwind$??$_Allocate_at_least_helper@V?$allocator@V?$vector@HV?$allocator@H@std@@@std@@@std@@@std@@YAPEAV?$vector@HV?$allocator@H@std@@@0@AEAV?$allocator@V?$vector@HV?$allocator@H@std@@@std@@@0@AEA_K@Z
pdata	ENDS
;	COMDAT pdata
pdata	SEGMENT
$pdata$?_Buy_raw@?$vector@V?$vector@HV?$allocator@H@std@@@std@@V?$allocator@V?$vector@HV?$allocator@H@std@@@std@@@2@@std@@AEAAX_K@Z DD imagerel $LN43@Buy_raw
	DD	imagerel $LN43@Buy_raw+140
	DD	imagerel $unwind$?_Buy_raw@?$vector@V?$vector@HV?$allocator@H@std@@@std@@V?$allocator@V?$vector@HV?$allocator@H@std@@@std@@@2@@std@@AEAAX_K@Z
pdata	ENDS
;	COMDAT pdata
pdata	SEGMENT
$pdata$?_Buy_nonzero@?$vector@V?$vector@HV?$allocator@H@std@@@std@@V?$allocator@V?$vector@HV?$allocator@H@std@@@std@@@2@@std@@AEAAX_K@Z DD imagerel $LN48@Buy_nonzer
	DD	imagerel $LN48@Buy_nonzer+28
	DD	imagerel $unwind$?_Buy_nonzero@?$vector@V?$vector@HV?$allocator@H@std@@@std@@V?$allocator@V?$vector@HV?$allocator@H@std@@@std@@@2@@std@@AEAAX_K@Z
pdata	ENDS
;	COMDAT pdata
pdata	SEGMENT
$pdata$0$?_Buy_nonzero@?$vector@V?$vector@HV?$allocator@H@std@@@std@@V?$allocator@V?$vector@HV?$allocator@H@std@@@std@@@2@@std@@AEAAX_K@Z DD imagerel $LN48@Buy_nonzer+28
	DD	imagerel $LN48@Buy_nonzer+135
	DD	imagerel $chain$0$?_Buy_nonzero@?$vector@V?$vector@HV?$allocator@H@std@@@std@@V?$allocator@V?$vector@HV?$allocator@H@std@@@std@@@2@@std@@AEAAX_K@Z
pdata	ENDS
;	COMDAT pdata
pdata	SEGMENT
$pdata$1$?_Buy_nonzero@?$vector@V?$vector@HV?$allocator@H@std@@@std@@V?$allocator@V?$vector@HV?$allocator@H@std@@@std@@@2@@std@@AEAAX_K@Z DD imagerel $LN48@Buy_nonzer+135
	DD	imagerel $LN48@Buy_nonzer+141
	DD	imagerel $chain$1$?_Buy_nonzero@?$vector@V?$vector@HV?$allocator@H@std@@@std@@V?$allocator@V?$vector@HV?$allocator@H@std@@@std@@@2@@std@@AEAAX_K@Z
pdata	ENDS
;	COMDAT pdata
pdata	SEGMENT
$pdata$2$?_Buy_nonzero@?$vector@V?$vector@HV?$allocator@H@std@@@std@@V?$allocator@V?$vector@HV?$allocator@H@std@@@std@@@2@@std@@AEAAX_K@Z DD imagerel $LN48@Buy_nonzer+141
	DD	imagerel $LN48@Buy_nonzer+147
	DD	imagerel $chain$2$?_Buy_nonzero@?$vector@V?$vector@HV?$allocator@H@std@@@std@@V?$allocator@V?$vector@HV?$allocator@H@std@@@std@@@2@@std@@AEAAX_K@Z
pdata	ENDS
;	COMDAT pdata
pdata	SEGMENT
$pdata$??$_Construct_n@AEBV?$vector@HV?$allocator@H@std@@@std@@@?$vector@V?$vector@HV?$allocator@H@std@@@std@@V?$allocator@V?$vector@HV?$allocator@H@std@@@std@@@2@@std@@AEAAX_KAEBV?$vector@HV?$allocator@H@std@@@1@@Z DD imagerel $LN35@Construct_
	DD	imagerel $LN35@Construct_+153
	DD	imagerel $unwind$??$_Construct_n@AEBV?$vector@HV?$allocator@H@std@@@std@@@?$vector@V?$vector@HV?$allocator@H@std@@@std@@V?$allocator@V?$vector@HV?$allocator@H@std@@@std@@@2@@std@@AEAAX_KAEBV?$vector@HV?$allocator@H@std@@@1@@Z
pdata	ENDS
;	COMDAT pdata
pdata	SEGMENT
$pdata$??0?$vector@V?$vector@HV?$allocator@H@std@@@std@@V?$allocator@V?$vector@HV?$allocator@H@std@@@std@@@2@@std@@QEAA@_KAEBV?$vector@HV?$allocator@H@std@@@1@AEBV?$allocator@V?$vector@HV?$allocator@H@std@@@std@@@1@@Z DD imagerel $LN41@vector
	DD	imagerel $LN41@vector+169
	DD	imagerel $unwind$??0?$vector@V?$vector@HV?$allocator@H@std@@@std@@V?$allocator@V?$vector@HV?$allocator@H@std@@@std@@@2@@std@@QEAA@_KAEBV?$vector@HV?$allocator@H@std@@@1@AEBV?$allocator@V?$vector@HV?$allocator@H@std@@@std@@@1@@Z
pdata	ENDS
;	COMDAT pdata
pdata	SEGMENT
$pdata$??1?$_Tidy_guard@V?$vector@HV?$allocator@H@std@@@std@@@std@@QEAA@XZ DD imagerel $LN35@Tidy_guard
	DD	imagerel $LN35@Tidy_guard+97
	DD	imagerel $unwind$??1?$_Tidy_guard@V?$vector@HV?$allocator@H@std@@@std@@@std@@QEAA@XZ
pdata	ENDS
;	COMDAT pdata
pdata	SEGMENT
$pdata$??$_Uninitialized_fill_n@V?$allocator@H@std@@@std@@YAPEAHPEAH_KAEBHAEAV?$allocator@H@0@@Z DD imagerel $LN28@Uninitiali
	DD	imagerel $LN28@Uninitiali+15
	DD	imagerel $unwind$??$_Uninitialized_fill_n@V?$allocator@H@std@@@std@@YAPEAHPEAH_KAEBHAEAV?$allocator@H@0@@Z
pdata	ENDS
;	COMDAT pdata
pdata	SEGMENT
$pdata$0$??$_Uninitialized_fill_n@V?$allocator@H@std@@@std@@YAPEAHPEAH_KAEBHAEAV?$allocator@H@0@@Z DD imagerel $LN28@Uninitiali+15
	DD	imagerel $LN28@Uninitiali+53
	DD	imagerel $chain$0$??$_Uninitialized_fill_n@V?$allocator@H@std@@@std@@YAPEAHPEAH_KAEBHAEAV?$allocator@H@0@@Z
pdata	ENDS
;	COMDAT pdata
pdata	SEGMENT
$pdata$1$??$_Uninitialized_fill_n@V?$allocator@H@std@@@std@@YAPEAHPEAH_KAEBHAEAV?$allocator@H@0@@Z DD imagerel $LN28@Uninitiali+53
	DD	imagerel $LN28@Uninitiali+88
	DD	imagerel $chain$1$??$_Uninitialized_fill_n@V?$allocator@H@std@@@std@@YAPEAHPEAH_KAEBHAEAV?$allocator@H@0@@Z
pdata	ENDS
;	COMDAT pdata
pdata	SEGMENT
$pdata$??$_Allocate_at_least_helper@V?$allocator@H@std@@@std@@YAPEAHAEAV?$allocator@H@0@AEA_K@Z DD imagerel $LN35@Allocate_a
	DD	imagerel $LN35@Allocate_a+115
	DD	imagerel $unwind$??$_Allocate_at_least_helper@V?$allocator@H@std@@@std@@YAPEAHAEAV?$allocator@H@0@AEA_K@Z
pdata	ENDS
;	COMDAT pdata
pdata	SEGMENT
$pdata$?_Buy_raw@?$vector@HV?$allocator@H@std@@@std@@AEAAX_K@Z DD imagerel $LN43@Buy_raw
	DD	imagerel $LN43@Buy_raw+136
	DD	imagerel $unwind$?_Buy_raw@?$vector@HV?$allocator@H@std@@@std@@AEAAX_K@Z
pdata	ENDS
;	COMDAT pdata
pdata	SEGMENT
$pdata$?_Buy_nonzero@?$vector@HV?$allocator@H@std@@@std@@AEAAX_K@Z DD imagerel $LN48@Buy_nonzer
	DD	imagerel $LN48@Buy_nonzer+24
	DD	imagerel $unwind$?_Buy_nonzero@?$vector@HV?$allocator@H@std@@@std@@AEAAX_K@Z
pdata	ENDS
;	COMDAT pdata
pdata	SEGMENT
$pdata$0$?_Buy_nonzero@?$vector@HV?$allocator@H@std@@@std@@AEAAX_K@Z DD imagerel $LN48@Buy_nonzer+24
	DD	imagerel $LN48@Buy_nonzer+131
	DD	imagerel $chain$0$?_Buy_nonzero@?$vector@HV?$allocator@H@std@@@std@@AEAAX_K@Z
pdata	ENDS
;	COMDAT pdata
pdata	SEGMENT
$pdata$1$?_Buy_nonzero@?$vector@HV?$allocator@H@std@@@std@@AEAAX_K@Z DD imagerel $LN48@Buy_nonzer+131
	DD	imagerel $LN48@Buy_nonzer+137
	DD	imagerel $chain$1$?_Buy_nonzero@?$vector@HV?$allocator@H@std@@@std@@AEAAX_K@Z
pdata	ENDS
;	COMDAT pdata
pdata	SEGMENT
$pdata$2$?_Buy_nonzero@?$vector@HV?$allocator@H@std@@@std@@AEAAX_K@Z DD imagerel $LN48@Buy_nonzer+137
	DD	imagerel $LN48@Buy_nonzer+143
	DD	imagerel $chain$2$?_Buy_nonzero@?$vector@HV?$allocator@H@std@@@std@@AEAAX_K@Z
pdata	ENDS
;	COMDAT pdata
pdata	SEGMENT
$pdata$??$_Construct_n@AEBH@?$vector@HV?$allocator@H@std@@@std@@AEAAX_KAEBH@Z DD imagerel $LN62@Construct_
	DD	imagerel $LN62@Construct_+16
	DD	imagerel $unwind$??$_Construct_n@AEBH@?$vector@HV?$allocator@H@std@@@std@@AEAAX_KAEBH@Z
pdata	ENDS
;	COMDAT pdata
pdata	SEGMENT
$pdata$0$??$_Construct_n@AEBH@?$vector@HV?$allocator@H@std@@@std@@AEAAX_KAEBH@Z DD imagerel $LN62@Construct_+16
	DD	imagerel $LN62@Construct_+82
	DD	imagerel $chain$0$??$_Construct_n@AEBH@?$vector@HV?$allocator@H@std@@@std@@AEAAX_KAEBH@Z
pdata	ENDS
;	COMDAT pdata
pdata	SEGMENT
$pdata$2$??$_Construct_n@AEBH@?$vector@HV?$allocator@H@std@@@std@@AEAAX_KAEBH@Z DD imagerel $LN62@Construct_+82
	DD	imagerel $LN62@Construct_+113
	DD	imagerel $chain$2$??$_Construct_n@AEBH@?$vector@HV?$allocator@H@std@@@std@@AEAAX_KAEBH@Z
pdata	ENDS
;	COMDAT pdata
pdata	SEGMENT
$pdata$3$??$_Construct_n@AEBH@?$vector@HV?$allocator@H@std@@@std@@AEAAX_KAEBH@Z DD imagerel $LN62@Construct_+113
	DD	imagerel $LN62@Construct_+114
	DD	imagerel $chain$3$??$_Construct_n@AEBH@?$vector@HV?$allocator@H@std@@@std@@AEAAX_KAEBH@Z
pdata	ENDS
;	COMDAT pdata
pdata	SEGMENT
$pdata$??0?$vector@HV?$allocator@H@std@@@std@@QEAA@_KAEBHAEBV?$allocator@H@1@@Z DD imagerel $LN69@vector
	DD	imagerel $LN69@vector+46
	DD	imagerel $unwind$??0?$vector@HV?$allocator@H@std@@@std@@QEAA@_KAEBHAEBV?$allocator@H@1@@Z
pdata	ENDS
;	COMDAT pdata
pdata	SEGMENT
$pdata$0$??0?$vector@HV?$allocator@H@std@@@std@@QEAA@_KAEBHAEBV?$allocator@H@1@@Z DD imagerel $LN69@vector+46
	DD	imagerel $LN69@vector+120
	DD	imagerel $chain$0$??0?$vector@HV?$allocator@H@std@@@std@@QEAA@_KAEBHAEBV?$allocator@H@1@@Z
pdata	ENDS
;	COMDAT pdata
pdata	SEGMENT
$pdata$1$??0?$vector@HV?$allocator@H@std@@@std@@QEAA@_KAEBHAEBV?$allocator@H@1@@Z DD imagerel $LN69@vector+120
	DD	imagerel $LN69@vector+132
	DD	imagerel $chain$1$??0?$vector@HV?$allocator@H@std@@@std@@QEAA@_KAEBHAEBV?$allocator@H@1@@Z
pdata	ENDS
;	COMDAT pdata
pdata	SEGMENT
$pdata$?set_board_size@qns@@YAXH@Z DD imagerel $LN9@set_board_
	DD	imagerel $LN9@set_board_+89
	DD	imagerel $unwind$?set_board_size@qns@@YAXH@Z
pdata	ENDS
;	COMDAT pdata
pdata	SEGMENT
$pdata$?set_verbose@qns@@YAX_N@Z DD imagerel $LN4@set_verbos
	DD	imagerel $LN4@set_verbos+55
	DD	imagerel $unwind$?set_verbose@qns@@YAX_N@Z
pdata	ENDS
;	COMDAT pdata
pdata	SEGMENT
$pdata$?test@qns@@YAXXZ DD imagerel $LN47@test
	DD	imagerel $LN47@test+957
	DD	imagerel $unwind$?test@qns@@YAXXZ
pdata	ENDS
;	COMDAT pdata
pdata	SEGMENT
$pdata$?set_short@qns@@YAXH@Z DD imagerel $LN4@set_short
	DD	imagerel $LN4@set_short+60
	DD	imagerel $unwind$?set_short@qns@@YAXH@Z
pdata	ENDS
;	COMDAT pdata
pdata	SEGMENT
$pdata$?solve@qns@@YANXZ DD imagerel $LN278@solve
	DD	imagerel $LN278@solve+1164
	DD	imagerel $unwind$?solve@qns@@YANXZ
?board_size@qns@@3HA DD 08H				; qns::board_size
_DATA	ENDS
;	COMDAT xdata
xdata	SEGMENT
$ip2state$?solve@qns@@YANXZ DQ 006044504d200b40cr ; 1.11666e-279
	DQ	0028502055904021dr		; 1.60612e-296
	DB	00H
xdata	ENDS
;	COMDAT xdata
xdata	SEGMENT
$stateUnwindMap$?solve@qns@@YANXZ DW 0a06H
	DD	imagerel ??1?$vector@HV?$allocator@H@std@@@std@@QEAA@XZ
	DW	03290H
	DD	imagerel ??1?$vector@NV?$allocator@N@std@@@std@@QEAA@XZ
	DW	03250H
	DD	imagerel ??1hi_res_timer@@QEAA@XZ
	DB	0c0H
xdata	ENDS
;	COMDAT xdata
xdata	SEGMENT
$cppxdata$?solve@qns@@YANXZ DB 028H
	DD	imagerel $stateUnwindMap$?solve@qns@@YANXZ
	DD	imagerel $ip2state$?solve@qns@@YANXZ
xdata	ENDS
;	COMDAT xdata
xdata	SEGMENT
$unwind$?solve@qns@@YANXZ DQ 00008983500154319r	; 1.19522e-308
	DQ	0000a782b00098830r		; 1.45595e-308
	DQ	000207423000b6827r		; 4.57633e-308
	DQ	0001e3423001f6423r		; 4.20034e-308
	DQ	0e016f01800180123r		; -7.68866e+154
	DQ	000005010c012d014r		; 4.3494e-310
	DD	imagerel __GSHandlerCheck_EH4
	DD	imagerel $cppxdata$?solve@qns@@YANXZ
	DD	072H
xdata	ENDS
;	COMDAT xdata
xdata	SEGMENT
$unwind$?set_short@qns@@YAXH@Z DQ 03002320600020601r ; 1.96423e-77
xdata	ENDS
;	COMDAT xdata
xdata	SEGMENT
$unwind$?test@qns@@YAXXZ DQ 00019641200072419r	; 3.53104e-308
	DQ	00016011200183412r		; 3.06006e-308
	DD	0700bH
	DD	imagerel __GSHandlerCheck
	DD	0a0H
xdata	ENDS
;	COMDAT xdata
xdata	SEGMENT
$unwind$?set_verbose@qns@@YAX_N@Z DQ 00000420400010401r ; 3.58617e-310
xdata	ENDS
;	COMDAT xdata
xdata	SEGMENT
$unwind$?set_board_size@qns@@YAXH@Z DQ 03002320600020601r ; 1.96423e-77
xdata	ENDS
;	COMDAT xdata
xdata	SEGMENT
$chain$1$??0?$vector@HV?$allocator@H@std@@@std@@QEAA@_KAEBHAEBV?$allocator@H@1@@Z DD 021H
	DD	imagerel $LN69@vector
	DD	imagerel $LN69@vector+46
	DD	imagerel $unwind$??0?$vector@HV?$allocator@H@std@@@std@@QEAA@_KAEBHAEBV?$allocator@H@1@@Z
xdata	ENDS
;	COMDAT xdata
xdata	SEGMENT
$chain$0$??0?$vector@HV?$allocator@H@std@@@std@@QEAA@_KAEBHAEBV?$allocator@H@1@@Z DQ 0000a340500020521r ; 1.41893e-308
	DD	imagerel $LN69@vector
	DD	imagerel $LN69@vector+46
	DD	imagerel $unwind$??0?$vector@HV?$allocator@H@std@@@std@@QEAA@_KAEBHAEBV?$allocator@H@1@@Z
xdata	ENDS
;	COMDAT xdata
xdata	SEGMENT
$unwind$??0?$vector@HV?$allocator@H@std@@@std@@QEAA@_KAEBHAEBV?$allocator@H@1@@Z DQ 0e005320900040901r ; -3.55231e+154
	DD	060027003H
xdata	ENDS
;	COMDAT xdata
xdata	SEGMENT
$chain$3$??$_Construct_n@AEBH@?$vector@HV?$allocator@H@std@@@std@@AEAAX_KAEBH@Z DD 021H
	DD	imagerel $LN62@Construct_
	DD	imagerel $LN62@Construct_+16
	DD	imagerel $unwind$??$_Construct_n@AEBH@?$vector@HV?$allocator@H@std@@@std@@AEAAX_KAEBH@Z
xdata	ENDS
;	COMDAT xdata
xdata	SEGMENT
$chain$2$??$_Construct_n@AEBH@?$vector@HV?$allocator@H@std@@@std@@AEAAX_KAEBH@Z DQ 0000a340000020021r ; 1.41892e-308
	DD	imagerel $LN62@Construct_
	DD	imagerel $LN62@Construct_+16
	DD	imagerel $unwind$??$_Construct_n@AEBH@?$vector@HV?$allocator@H@std@@@std@@AEAAX_KAEBH@Z
xdata	ENDS
;	COMDAT xdata
xdata	SEGMENT
$chain$0$??$_Construct_n@AEBH@?$vector@HV?$allocator@H@std@@@std@@AEAAX_KAEBH@Z DQ 0000a340500020521r ; 1.41893e-308
	DD	imagerel $LN62@Construct_
	DD	imagerel $LN62@Construct_+16
	DD	imagerel $unwind$??$_Construct_n@AEBH@?$vector@HV?$allocator@H@std@@@std@@AEAAX_KAEBH@Z
xdata	ENDS
;	COMDAT xdata
xdata	SEGMENT
$unwind$??$_Construct_n@AEBH@?$vector@HV?$allocator@H@std@@@std@@AEAAX_KAEBH@Z DQ 0e009320d00040d01r ; -4.22271e+154
	DD	060067007H
xdata	ENDS
;	COMDAT xdata
xdata	SEGMENT
$chain$2$?_Buy_nonzero@?$vector@HV?$allocator@H@std@@@std@@AEAAX_K@Z DQ 00008340000020021r ; 1.14078e-308
	DD	imagerel $LN48@Buy_nonzer
	DD	imagerel $LN48@Buy_nonzer+24
	DD	imagerel $unwind$?_Buy_nonzero@?$vector@HV?$allocator@H@std@@@std@@AEAAX_K@Z
xdata	ENDS
;	COMDAT xdata
xdata	SEGMENT
$chain$1$?_Buy_nonzero@?$vector@HV?$allocator@H@std@@@std@@AEAAX_K@Z DD 021H
	DD	imagerel $LN48@Buy_nonzer
	DD	imagerel $LN48@Buy_nonzer+24
	DD	imagerel $unwind$?_Buy_nonzero@?$vector@HV?$allocator@H@std@@@std@@AEAAX_K@Z
xdata	ENDS
;	COMDAT xdata
xdata	SEGMENT
$chain$0$?_Buy_nonzero@?$vector@HV?$allocator@H@std@@@std@@AEAAX_K@Z DQ 00008340500020521r ; 1.1408e-308
	DD	imagerel $LN48@Buy_nonzer
	DD	imagerel $LN48@Buy_nonzer+24
	DD	imagerel $unwind$?_Buy_nonzero@?$vector@HV?$allocator@H@std@@@std@@AEAAX_K@Z
xdata	ENDS
;	COMDAT xdata
xdata	SEGMENT
$unwind$?_Buy_nonzero@?$vector@HV?$allocator@H@std@@@std@@AEAAX_K@Z DQ 07002320600020601r ; 3.53109e+231
xdata	ENDS
;	COMDAT xdata
xdata	SEGMENT
$unwind$?_Buy_raw@?$vector@HV?$allocator@H@std@@@std@@AEAAX_K@Z DQ 00008340a00040a01r ; 1.14081e-308
	DD	07006320aH
xdata	ENDS
;	COMDAT xdata
xdata	SEGMENT
$unwind$??$_Allocate_at_least_helper@V?$allocator@H@std@@@std@@YAPEAHAEAV?$allocator@H@0@AEA_K@Z DQ 00000420400010401r ; 3.58617e-310
xdata	ENDS
;	COMDAT xdata
xdata	SEGMENT
$chain$1$??$_Uninitialized_fill_n@V?$allocator@H@std@@@std@@YAPEAHPEAH_KAEBHAEAV?$allocator@H@0@@Z DD 021H
	DD	imagerel $LN28@Uninitiali
	DD	imagerel $LN28@Uninitiali+15
	DD	imagerel $unwind$??$_Uninitialized_fill_n@V?$allocator@H@std@@@std@@YAPEAHPEAH_KAEBHAEAV?$allocator@H@0@@Z
xdata	ENDS
;	COMDAT xdata
xdata	SEGMENT
$chain$0$??$_Uninitialized_fill_n@V?$allocator@H@std@@@std@@YAPEAHPEAH_KAEBHAEAV?$allocator@H@0@@Z DQ 00008740500020521r ; 1.17556e-308
	DD	imagerel $LN28@Uninitiali
	DD	imagerel $LN28@Uninitiali+15
	DD	imagerel $unwind$??$_Uninitialized_fill_n@V?$allocator@H@std@@@std@@YAPEAHPEAH_KAEBHAEAV?$allocator@H@0@@Z
xdata	ENDS
;	COMDAT xdata
xdata	SEGMENT
$unwind$??$_Uninitialized_fill_n@V?$allocator@H@std@@@std@@YAPEAHPEAH_KAEBHAEAV?$allocator@H@0@@Z DQ 03002320600020601r ; 1.96423e-77
xdata	ENDS
;	COMDAT xdata
xdata	SEGMENT
$unwind$??1?$_Tidy_guard@V?$vector@HV?$allocator@H@std@@@std@@@std@@QEAA@XZ DQ 03002320600020601r ; 1.96423e-77
xdata	ENDS
;	COMDAT xdata
xdata	SEGMENT
$ip2state$??0?$vector@V?$vector@HV?$allocator@H@std@@@std@@V?$allocator@V?$vector@HV?$allocator@H@std@@@std@@@2@@std@@QEAA@_KAEBV?$vector@HV?$allocator@H@std@@@1@AEBV?$allocator@V?$vector@HV?$allocator@H@std@@@std@@@1@@Z DD 060006c06H
	DW	05c04H
	DB	00H
xdata	ENDS
;	COMDAT xdata
xdata	SEGMENT
$stateUnwindMap$??0?$vector@V?$vector@HV?$allocator@H@std@@@std@@V?$allocator@V?$vector@HV?$allocator@H@std@@@std@@@2@@std@@QEAA@_KAEBV?$vector@HV?$allocator@H@std@@@1@AEBV?$allocator@V?$vector@HV?$allocator@H@std@@@std@@@1@@Z DW 0a04H
	DD	imagerel ??1?$_Tidy_guard@V?$vector@V?$vector@HV?$allocator@H@std@@@std@@V?$allocator@V?$vector@HV?$allocator@H@std@@@std@@@2@@std@@@std@@QEAA@XZ
	DW	03240H
	DD	imagerel ??1?$_Uninitialized_backout_al@V?$allocator@V?$vector@HV?$allocator@H@std@@@std@@@std@@@std@@QEAA@XZ
	DB	050H
xdata	ENDS
;	COMDAT xdata
xdata	SEGMENT
$cppxdata$??0?$vector@V?$vector@HV?$allocator@H@std@@@std@@V?$allocator@V?$vector@HV?$allocator@H@std@@@std@@@2@@std@@QEAA@_KAEBV?$vector@HV?$allocator@H@std@@@1@AEBV?$allocator@V?$vector@HV?$allocator@H@std@@@std@@@1@@Z DB 028H
	DD	imagerel $stateUnwindMap$??0?$vector@V?$vector@HV?$allocator@H@std@@@std@@V?$allocator@V?$vector@HV?$allocator@H@std@@@std@@@2@@std@@QEAA@_KAEBV?$vector@HV?$allocator@H@std@@@1@AEBV?$allocator@V?$vector@HV?$allocator@H@std@@@std@@@1@@Z
	DD	imagerel $ip2state$??0?$vector@V?$vector@HV?$allocator@H@std@@@std@@V?$allocator@V?$vector@HV?$allocator@H@std@@@std@@@2@@std@@QEAA@_KAEBV?$vector@HV?$allocator@H@std@@@1@AEBV?$allocator@V?$vector@HV?$allocator@H@std@@@std@@@1@@Z
xdata	ENDS
;	COMDAT xdata
xdata	SEGMENT
$unwind$??0?$vector@V?$vector@HV?$allocator@H@std@@@std@@V?$allocator@V?$vector@HV?$allocator@H@std@@@std@@@2@@std@@QEAA@_KAEBV?$vector@HV?$allocator@H@std@@@1@AEBV?$allocator@V?$vector@HV?$allocator@H@std@@@std@@@1@@Z DQ 00011340c00061b19r ; 2.39241e-308
	DQ	0500660077008920cr		; 3.23858e+77
	DD	imagerel __GSHandlerCheck_EH4
	DD	imagerel $cppxdata$??0?$vector@V?$vector@HV?$allocator@H@std@@@std@@V?$allocator@V?$vector@HV?$allocator@H@std@@@std@@@2@@std@@QEAA@_KAEBV?$vector@HV?$allocator@H@std@@@1@AEBV?$allocator@V?$vector@HV?$allocator@H@std@@@std@@@1@@Z
	DD	042H
xdata	ENDS
;	COMDAT xdata
xdata	SEGMENT
$ip2state$??$_Construct_n@AEBV?$vector@HV?$allocator@H@std@@@std@@@?$vector@V?$vector@HV?$allocator@H@std@@@std@@V?$allocator@V?$vector@HV?$allocator@H@std@@@std@@@2@@std@@AEAAX_KAEBV?$vector@HV?$allocator@H@std@@@1@@Z DD 054005c06H
	DW	05604H
	DB	00H
xdata	ENDS
;	COMDAT xdata
xdata	SEGMENT
$stateUnwindMap$??$_Construct_n@AEBV?$vector@HV?$allocator@H@std@@@std@@@?$vector@V?$vector@HV?$allocator@H@std@@@std@@V?$allocator@V?$vector@HV?$allocator@H@std@@@std@@@2@@std@@AEAAX_KAEBV?$vector@HV?$allocator@H@std@@@1@@Z DW 0a04H
	DD	imagerel ??1?$_Tidy_guard@V?$vector@V?$vector@HV?$allocator@H@std@@@std@@V?$allocator@V?$vector@HV?$allocator@H@std@@@std@@@2@@std@@@std@@QEAA@XZ
	DW	03240H
	DD	imagerel ??1?$_Uninitialized_backout_al@V?$allocator@V?$vector@HV?$allocator@H@std@@@std@@@std@@@std@@QEAA@XZ
	DB	050H
xdata	ENDS
;	COMDAT xdata
xdata	SEGMENT
$cppxdata$??$_Construct_n@AEBV?$vector@HV?$allocator@H@std@@@std@@@?$vector@V?$vector@HV?$allocator@H@std@@@std@@V?$allocator@V?$vector@HV?$allocator@H@std@@@std@@@2@@std@@AEAAX_KAEBV?$vector@HV?$allocator@H@std@@@1@@Z DB 028H
	DD	imagerel $stateUnwindMap$??$_Construct_n@AEBV?$vector@HV?$allocator@H@std@@@std@@@?$vector@V?$vector@HV?$allocator@H@std@@@std@@V?$allocator@V?$vector@HV?$allocator@H@std@@@std@@@2@@std@@AEAAX_KAEBV?$vector@HV?$allocator@H@std@@@1@@Z
	DD	imagerel $ip2state$??$_Construct_n@AEBV?$vector@HV?$allocator@H@std@@@std@@@?$vector@V?$vector@HV?$allocator@H@std@@@std@@V?$allocator@V?$vector@HV?$allocator@H@std@@@std@@@2@@std@@AEAAX_KAEBV?$vector@HV?$allocator@H@std@@@1@@Z
xdata	ENDS
;	COMDAT xdata
xdata	SEGMENT
$unwind$??$_Construct_n@AEBV?$vector@HV?$allocator@H@std@@@std@@@?$vector@V?$vector@HV?$allocator@H@std@@@std@@V?$allocator@V?$vector@HV?$allocator@H@std@@@std@@@2@@std@@AEAAX_KAEBV?$vector@HV?$allocator@H@std@@@1@@Z DQ 00011341600062519r ; 2.39244e-308
	DQ	0600f7010e0129216r		; 5.26889e+154
	DD	imagerel __GSHandlerCheck_EH4
	DD	imagerel $cppxdata$??$_Construct_n@AEBV?$vector@HV?$allocator@H@std@@@std@@@?$vector@V?$vector@HV?$allocator@H@std@@@std@@V?$allocator@V?$vector@HV?$allocator@H@std@@@std@@@2@@std@@AEAAX_KAEBV?$vector@HV?$allocator@H@std@@@1@@Z
	DD	042H
xdata	ENDS
;	COMDAT xdata
xdata	SEGMENT
$chain$2$?_Buy_nonzero@?$vector@V?$vector@HV?$allocator@H@std@@@std@@V?$allocator@V?$vector@HV?$allocator@H@std@@@std@@@2@@std@@AEAAX_K@Z DQ 00008340000020021r ; 1.14078e-308
	DD	imagerel $LN48@Buy_nonzer
	DD	imagerel $LN48@Buy_nonzer+28
	DD	imagerel $unwind$?_Buy_nonzero@?$vector@V?$vector@HV?$allocator@H@std@@@std@@V?$allocator@V?$vector@HV?$allocator@H@std@@@std@@@2@@std@@AEAAX_K@Z
xdata	ENDS
;	COMDAT xdata
xdata	SEGMENT
$chain$1$?_Buy_nonzero@?$vector@V?$vector@HV?$allocator@H@std@@@std@@V?$allocator@V?$vector@HV?$allocator@H@std@@@std@@@2@@std@@AEAAX_K@Z DD 021H
	DD	imagerel $LN48@Buy_nonzer
	DD	imagerel $LN48@Buy_nonzer+28
	DD	imagerel $unwind$?_Buy_nonzero@?$vector@V?$vector@HV?$allocator@H@std@@@std@@V?$allocator@V?$vector@HV?$allocator@H@std@@@std@@@2@@std@@AEAAX_K@Z
xdata	ENDS
;	COMDAT xdata
xdata	SEGMENT
$chain$0$?_Buy_nonzero@?$vector@V?$vector@HV?$allocator@H@std@@@std@@V?$allocator@V?$vector@HV?$allocator@H@std@@@std@@@2@@std@@AEAAX_K@Z DQ 00008340500020521r ; 1.1408e-308
	DD	imagerel $LN48@Buy_nonzer
	DD	imagerel $LN48@Buy_nonzer+28
	DD	imagerel $unwind$?_Buy_nonzero@?$vector@V?$vector@HV?$allocator@H@std@@@std@@V?$allocator@V?$vector@HV?$allocator@H@std@@@std@@@2@@std@@AEAAX_K@Z
xdata	ENDS
;	COMDAT xdata
xdata	SEGMENT
$unwind$?_Buy_nonzero@?$vector@V?$vector@HV?$allocator@H@std@@@std@@V?$allocator@V?$vector@HV?$allocator@H@std@@@std@@@2@@std@@AEAAX_K@Z DQ 07002320600020601r ; 3.53109e+231
xdata	ENDS
;	COMDAT xdata
xdata	SEGMENT
$unwind$?_Buy_raw@?$vector@V?$vector@HV?$allocator@H@std@@@std@@V?$allocator@V?$vector@HV?$allocator@H@std@@@std@@@2@@std@@AEAAX_K@Z DQ 00008340a00040a01r ; 1.14081e-308
	DD	07006320aH
xdata	ENDS
;	COMDAT xdata
xdata	SEGMENT
$unwind$??$_Allocate_at_least_helper@V?$allocator@V?$vector@HV?$allocator@H@std@@@std@@@std@@@std@@YAPEAV?$vector@HV?$allocator@H@std@@@0@AEAV?$allocator@V?$vector@HV?$allocator@H@std@@@std@@@0@AEA_K@Z DQ 00000420400010401r ; 3.58617e-310
xdata	ENDS
;	COMDAT xdata
xdata	SEGMENT
$ip2state$??$_Uninitialized_fill_n@V?$allocator@V?$vector@HV?$allocator@H@std@@@std@@@std@@@std@@YAPEAV?$vector@HV?$allocator@H@std@@@0@PEAV10@_KAEBV10@AEAV?$allocator@V?$vector@HV?$allocator@H@std@@@std@@@0@@Z DD 054029204H
	DB	00H
xdata	ENDS
;	COMDAT xdata
xdata	SEGMENT
$stateUnwindMap$??$_Uninitialized_fill_n@V?$allocator@V?$vector@HV?$allocator@H@std@@@std@@@std@@@std@@YAPEAV?$vector@HV?$allocator@H@std@@@0@PEAV10@_KAEBV10@AEAV?$allocator@V?$vector@HV?$allocator@H@std@@@std@@@0@@Z DW 0a02H
	DD	imagerel ??1?$_Uninitialized_backout_al@V?$allocator@V?$vector@HV?$allocator@H@std@@@std@@@std@@@std@@QEAA@XZ
	DB	040H
xdata	ENDS
;	COMDAT xdata
xdata	SEGMENT
$cppxdata$??$_Uninitialized_fill_n@V?$allocator@V?$vector@HV?$allocator@H@std@@@std@@@std@@@std@@YAPEAV?$vector@HV?$allocator@H@std@@@0@PEAV10@_KAEBV10@AEAV?$allocator@V?$vector@HV?$allocator@H@std@@@std@@@0@@Z DB 028H
	DD	imagerel $stateUnwindMap$??$_Uninitialized_fill_n@V?$allocator@V?$vector@HV?$allocator@H@std@@@std@@@std@@@std@@YAPEAV?$vector@HV?$allocator@H@std@@@0@PEAV10@_KAEBV10@AEAV?$allocator@V?$vector@HV?$allocator@H@std@@@std@@@0@@Z
	DD	imagerel $ip2state$??$_Uninitialized_fill_n@V?$allocator@V?$vector@HV?$allocator@H@std@@@std@@@std@@@std@@YAPEAV?$vector@HV?$allocator@H@std@@@0@PEAV10@_KAEBV10@AEAV?$allocator@V?$vector@HV?$allocator@H@std@@@std@@@0@@Z
xdata	ENDS
;	COMDAT xdata
xdata	SEGMENT
$unwind$??$_Uninitialized_fill_n@V?$allocator@V?$vector@HV?$allocator@H@std@@@std@@@std@@@std@@YAPEAV?$vector@HV?$allocator@H@std@@@0@PEAV10@_KAEBV10@AEAV?$allocator@V?$vector@HV?$allocator@H@std@@@std@@@0@@Z DQ 0000b640f00061e19r ; 1.58409e-308
	DQ	0700b720f000a340fr		; 5.32621e+231
	DD	imagerel __GSHandlerCheck_EH4
	DD	imagerel $cppxdata$??$_Uninitialized_fill_n@V?$allocator@V?$vector@HV?$allocator@H@std@@@std@@@std@@@std@@YAPEAV?$vector@HV?$allocator@H@std@@@0@PEAV10@_KAEBV10@AEAV?$allocator@V?$vector@HV?$allocator@H@std@@@std@@@0@@Z
	DD	03aH
xdata	ENDS
;	COMDAT xdata
xdata	SEGMENT
$unwind$??$_Emplace_back@AEBV?$vector@HV?$allocator@H@std@@@std@@@?$_Uninitialized_backout_al@V?$allocator@V?$vector@HV?$allocator@H@std@@@std@@@std@@@std@@QEAAXAEBV?$vector@HV?$allocator@H@std@@@1@@Z DQ 03002320600020601r ; 1.96423e-77
xdata	ENDS
;	COMDAT xdata
xdata	SEGMENT
$chain$1$??0?$vector@HV?$allocator@H@std@@@std@@QEAA@AEBV01@@Z DD 021H
	DD	imagerel $LN64@vector
	DD	imagerel $LN64@vector+45
	DD	imagerel $unwind$??0?$vector@HV?$allocator@H@std@@@std@@QEAA@AEBV01@@Z
xdata	ENDS
;	COMDAT xdata
xdata	SEGMENT
$chain$0$??0?$vector@HV?$allocator@H@std@@@std@@QEAA@AEBV01@@Z DQ 00008740500020521r ; 1.17556e-308
	DD	imagerel $LN64@vector
	DD	imagerel $LN64@vector+45
	DD	imagerel $unwind$??0?$vector@HV?$allocator@H@std@@@std@@QEAA@AEBV01@@Z
xdata	ENDS
;	COMDAT xdata
xdata	SEGMENT
$unwind$??0?$vector@HV?$allocator@H@std@@@std@@QEAA@AEBV01@@Z DQ 00009340a00040a01r ; 1.27987e-308
	DD	06006320aH
xdata	ENDS
;	COMDAT xdata
xdata	SEGMENT
$chain$1$??$_Construct_n@AEBQEAHAEBQEAH@?$vector@HV?$allocator@H@std@@@std@@AEAAX_KAEBQEAH1@Z DD 021H
	DD	imagerel $LN57@Construct_
	DD	imagerel $LN57@Construct_+16
	DD	imagerel $unwind$??$_Construct_n@AEBQEAHAEBQEAH@?$vector@HV?$allocator@H@std@@@std@@AEAAX_KAEBQEAH1@Z
xdata	ENDS
;	COMDAT xdata
xdata	SEGMENT
$chain$0$??$_Construct_n@AEBQEAHAEBQEAH@?$vector@HV?$allocator@H@std@@@std@@AEAAX_KAEBQEAH1@Z DQ 00005740500020521r ; 7.58361e-309
	DD	imagerel $LN57@Construct_
	DD	imagerel $LN57@Construct_+16
	DD	imagerel $unwind$??$_Construct_n@AEBQEAHAEBQEAH@?$vector@HV?$allocator@H@std@@@std@@AEAAX_KAEBQEAH1@Z
xdata	ENDS
;	COMDAT xdata
xdata	SEGMENT
$unwind$??$_Construct_n@AEBQEAHAEBQEAH@?$vector@HV?$allocator@H@std@@@std@@AEAAX_KAEBQEAH1@Z DQ 0e009520d00040d01r ; -4.24366e+154
	DD	030066007H
xdata	ENDS
;	COMDAT xdata
xdata	SEGMENT
$unwind$??$_Uninitialized_copy@PEAHPEAHV?$allocator@H@std@@@std@@YAPEAHPEAH00AEAV?$allocator@H@0@@Z DQ 00009340a00040a01r ; 1.27987e-308
	DD	07006320aH
xdata	ENDS
;	COMDAT xdata
xdata	SEGMENT
$chain$2$??$_Destroy_range@V?$allocator@V?$vector@HV?$allocator@H@std@@@std@@@std@@@std@@YAXPEAV?$vector@HV?$allocator@H@std@@@0@QEAV10@AEAV?$allocator@V?$vector@HV?$allocator@H@std@@@std@@@0@@Z DQ 00007640000020021r ; 1.02779e-308
	DD	imagerel $LN57@Destroy_ra
	DD	imagerel $LN57@Destroy_ra+15
	DD	imagerel $unwind$??$_Destroy_range@V?$allocator@V?$vector@HV?$allocator@H@std@@@std@@@std@@@std@@YAXPEAV?$vector@HV?$allocator@H@std@@@0@QEAV10@AEAV?$allocator@V?$vector@HV?$allocator@H@std@@@std@@@0@@Z
xdata	ENDS
;	COMDAT xdata
xdata	SEGMENT
$chain$1$??$_Destroy_range@V?$allocator@V?$vector@HV?$allocator@H@std@@@std@@@std@@@std@@YAXPEAV?$vector@HV?$allocator@H@std@@@0@QEAV10@AEAV?$allocator@V?$vector@HV?$allocator@H@std@@@std@@@0@@Z DD 021H
	DD	imagerel $LN57@Destroy_ra
	DD	imagerel $LN57@Destroy_ra+15
	DD	imagerel $unwind$??$_Destroy_range@V?$allocator@V?$vector@HV?$allocator@H@std@@@std@@@std@@@std@@YAXPEAV?$vector@HV?$allocator@H@std@@@0@QEAV10@AEAV?$allocator@V?$vector@HV?$allocator@H@std@@@std@@@0@@Z
xdata	ENDS
;	COMDAT xdata
xdata	SEGMENT
$chain$0$??$_Destroy_range@V?$allocator@V?$vector@HV?$allocator@H@std@@@std@@@std@@@std@@YAXPEAV?$vector@HV?$allocator@H@std@@@0@QEAV10@AEAV?$allocator@V?$vector@HV?$allocator@H@std@@@std@@@0@@Z DQ 00007640500020521r ; 1.0278e-308
	DD	imagerel $LN57@Destroy_ra
	DD	imagerel $LN57@Destroy_ra+15
	DD	imagerel $unwind$??$_Destroy_range@V?$allocator@V?$vector@HV?$allocator@H@std@@@std@@@std@@@std@@YAXPEAV?$vector@HV?$allocator@H@std@@@0@QEAV10@AEAV?$allocator@V?$vector@HV?$allocator@H@std@@@std@@@0@@Z
xdata	ENDS
;	COMDAT xdata
xdata	SEGMENT
$unwind$??$_Destroy_range@V?$allocator@V?$vector@HV?$allocator@H@std@@@std@@@std@@@std@@YAXPEAV?$vector@HV?$allocator@H@std@@@0@QEAV10@AEAV?$allocator@V?$vector@HV?$allocator@H@std@@@std@@@0@@Z DQ 00008340f00040f01r ; 1.14082e-308
	DD	0700b320fH
xdata	ENDS
;	COMDAT xdata
xdata	SEGMENT
$ip2state$??__Esolutions@qns@@YAXXZ DQ 0fa066002aa006c08r ; -6.34614e+279
	DB	00H
xdata	ENDS
;	COMDAT xdata
xdata	SEGMENT
$stateUnwindMap$??__Esolutions@qns@@YAXXZ DW 0a06H
	DD	imagerel ??1?$vector@HV?$allocator@H@std@@@std@@QEAA@XZ
	DW	03240H
	DD	imagerel ??1?$_Tidy_guard@V?$vector@V?$vector@HV?$allocator@H@std@@@std@@V?$allocator@V?$vector@HV?$allocator@H@std@@@std@@@2@@std@@@std@@QEAA@XZ
	DW	03270H
	DD	imagerel ??1?$_Uninitialized_backout_al@V?$allocator@V?$vector@HV?$allocator@H@std@@@std@@@std@@@std@@QEAA@XZ
	DB	080H
xdata	ENDS
;	COMDAT xdata
xdata	SEGMENT
$cppxdata$??__Esolutions@qns@@YAXXZ DB 028H
	DD	imagerel $stateUnwindMap$??__Esolutions@qns@@YAXXZ
	DD	imagerel $ip2state$??__Esolutions@qns@@YAXXZ
xdata	ENDS
;	COMDAT xdata
xdata	SEGMENT
$unwind$??__Esolutions@qns@@YAXXZ DQ 0000f640f00061e19r ; 2.14036e-308
	DQ	0700bb20f000e340fr		; 5.37473e+231
	DD	imagerel __GSHandlerCheck_EH4
	DD	imagerel $cppxdata$??__Esolutions@qns@@YAXXZ
	DD	05aH
xdata	ENDS
;	COMDAT xdata
xdata	SEGMENT
$ip2state$?show_map@qns@@YAX_K@Z DQ 00002b902c6007206r ; 3.78638e-309
xdata	ENDS
;	COMDAT xdata
xdata	SEGMENT
$stateUnwindMap$?show_map@qns@@YAX_K@Z DW 0a02H
	DD	imagerel ??1?$basic_string@DU?$char_traits@D@std@@V?$allocator@D@2@@std@@QEAA@XZ
	DB	050H
xdata	ENDS
;	COMDAT xdata
xdata	SEGMENT
$cppxdata$?show_map@qns@@YAX_K@Z DB 028H
	DD	imagerel $stateUnwindMap$?show_map@qns@@YAX_K@Z
	DD	imagerel $ip2state$?show_map@qns@@YAX_K@Z
xdata	ENDS
;	COMDAT xdata
xdata	SEGMENT
$unwind$?show_map@qns@@YAX_K@Z DQ 00011641400082319r ; 2.41851e-308
	DQ	0000f341400105414r		; 2.1143e-308
	DD	07010b214H
	DD	imagerel __GSHandlerCheck_EH4
	DD	imagerel $cppxdata$?show_map@qns@@YAX_K@Z
	DD	052H
xdata	ENDS
;	COMDAT xdata
xdata	SEGMENT
$ip2state$??0?$vector@V?$vector@HV?$allocator@H@std@@@std@@V?$allocator@V?$vector@HV?$allocator@H@std@@@std@@@2@@std@@QEAA@V?$initializer_list@V?$vector@HV?$allocator@H@std@@@std@@@1@AEBV?$allocator@V?$vector@HV?$allocator@H@std@@@std@@@1@@Z DD 05e00b006H
	DW	06204H
	DB	00H
xdata	ENDS
;	COMDAT xdata
xdata	SEGMENT
$stateUnwindMap$??0?$vector@V?$vector@HV?$allocator@H@std@@@std@@V?$allocator@V?$vector@HV?$allocator@H@std@@@std@@@2@@std@@QEAA@V?$initializer_list@V?$vector@HV?$allocator@H@std@@@std@@@1@AEBV?$allocator@V?$vector@HV?$allocator@H@std@@@std@@@1@@Z DW 0a04H
	DD	imagerel ??1?$_Tidy_guard@V?$vector@V?$vector@HV?$allocator@H@std@@@std@@V?$allocator@V?$vector@HV?$allocator@H@std@@@std@@@2@@std@@@std@@QEAA@XZ
	DW	03240H
	DD	imagerel ??1?$_Uninitialized_backout_al@V?$allocator@V?$vector@HV?$allocator@H@std@@@std@@@std@@@std@@QEAA@XZ
	DB	050H
xdata	ENDS
;	COMDAT xdata
xdata	SEGMENT
$cppxdata$??0?$vector@V?$vector@HV?$allocator@H@std@@@std@@V?$allocator@V?$vector@HV?$allocator@H@std@@@std@@@2@@std@@QEAA@V?$initializer_list@V?$vector@HV?$allocator@H@std@@@std@@@1@AEBV?$allocator@V?$vector@HV?$allocator@H@std@@@std@@@1@@Z DB 028H
	DD	imagerel $stateUnwindMap$??0?$vector@V?$vector@HV?$allocator@H@std@@@std@@V?$allocator@V?$vector@HV?$allocator@H@std@@@std@@@2@@std@@QEAA@V?$initializer_list@V?$vector@HV?$allocator@H@std@@@std@@@1@AEBV?$allocator@V?$vector@HV?$allocator@H@std@@@std@@@1@@Z
	DD	imagerel $ip2state$??0?$vector@V?$vector@HV?$allocator@H@std@@@std@@V?$allocator@V?$vector@HV?$allocator@H@std@@@std@@@2@@std@@QEAA@V?$initializer_list@V?$vector@HV?$allocator@H@std@@@std@@@1@AEBV?$allocator@V?$vector@HV?$allocator@H@std@@@std@@@1@@Z
xdata	ENDS
;	COMDAT xdata
xdata	SEGMENT
$unwind$??0?$vector@V?$vector@HV?$allocator@H@std@@@std@@V?$allocator@V?$vector@HV?$allocator@H@std@@@std@@@2@@std@@QEAA@V?$initializer_list@V?$vector@HV?$allocator@H@std@@@std@@@1@AEBV?$allocator@V?$vector@HV?$allocator@H@std@@@std@@@1@@Z DQ 00010340c00061b19r ; 2.25335e-308
	DQ	0500660077008920cr		; 3.23858e+77
	DD	imagerel __GSHandlerCheck_EH4
	DD	imagerel $cppxdata$??0?$vector@V?$vector@HV?$allocator@H@std@@@std@@V?$allocator@V?$vector@HV?$allocator@H@std@@@std@@@2@@std@@QEAA@V?$initializer_list@V?$vector@HV?$allocator@H@std@@@std@@@1@AEBV?$allocator@V?$vector@HV?$allocator@H@std@@@std@@@1@@Z
	DD	042H
xdata	ENDS
;	COMDAT xdata
xdata	SEGMENT
$ip2state$??$_Construct_n@PEBV?$vector@HV?$allocator@H@std@@@std@@PEBV12@@?$vector@V?$vector@HV?$allocator@H@std@@@std@@V?$allocator@V?$vector@HV?$allocator@H@std@@@std@@@2@@std@@AEAAX_K$$QEAPEBV?$vector@HV?$allocator@H@std@@@1@1@Z DD 070005c06H
	DW	05c04H
	DB	00H
xdata	ENDS
;	COMDAT xdata
xdata	SEGMENT
$stateUnwindMap$??$_Construct_n@PEBV?$vector@HV?$allocator@H@std@@@std@@PEBV12@@?$vector@V?$vector@HV?$allocator@H@std@@@std@@V?$allocator@V?$vector@HV?$allocator@H@std@@@std@@@2@@std@@AEAAX_K$$QEAPEBV?$vector@HV?$allocator@H@std@@@1@1@Z DW 0a04H
	DD	imagerel ??1?$_Tidy_guard@V?$vector@V?$vector@HV?$allocator@H@std@@@std@@V?$allocator@V?$vector@HV?$allocator@H@std@@@std@@@2@@std@@@std@@QEAA@XZ
	DW	03240H
	DD	imagerel ??1?$_Uninitialized_backout_al@V?$allocator@V?$vector@HV?$allocator@H@std@@@std@@@std@@@std@@QEAA@XZ
	DB	050H
xdata	ENDS
;	COMDAT xdata
xdata	SEGMENT
$cppxdata$??$_Construct_n@PEBV?$vector@HV?$allocator@H@std@@@std@@PEBV12@@?$vector@V?$vector@HV?$allocator@H@std@@@std@@V?$allocator@V?$vector@HV?$allocator@H@std@@@std@@@2@@std@@AEAAX_K$$QEAPEBV?$vector@HV?$allocator@H@std@@@1@1@Z DB 028H
	DD	imagerel $stateUnwindMap$??$_Construct_n@PEBV?$vector@HV?$allocator@H@std@@@std@@PEBV12@@?$vector@V?$vector@HV?$allocator@H@std@@@std@@V?$allocator@V?$vector@HV?$allocator@H@std@@@std@@@2@@std@@AEAAX_K$$QEAPEBV?$vector@HV?$allocator@H@std@@@1@1@Z
	DD	imagerel $ip2state$??$_Construct_n@PEBV?$vector@HV?$allocator@H@std@@@std@@PEBV12@@?$vector@V?$vector@HV?$allocator@H@std@@@std@@V?$allocator@V?$vector@HV?$allocator@H@std@@@std@@@2@@std@@AEAAX_K$$QEAPEBV?$vector@HV?$allocator@H@std@@@1@1@Z
xdata	ENDS
;	COMDAT xdata
xdata	SEGMENT
$unwind$??$_Construct_n@PEBV?$vector@HV?$allocator@H@std@@@std@@PEBV12@@?$vector@V?$vector@HV?$allocator@H@std@@@std@@V?$allocator@V?$vector@HV?$allocator@H@std@@@std@@@2@@std@@AEAAX_K$$QEAPEBV?$vector@HV?$allocator@H@std@@@1@1@Z DQ 00011341600062519r ; 2.39244e-308
	DQ	0600f7010e0129216r		; 5.26889e+154
	DD	imagerel __GSHandlerCheck_EH4
	DD	imagerel $cppxdata$??$_Construct_n@PEBV?$vector@HV?$allocator@H@std@@@std@@PEBV12@@?$vector@V?$vector@HV?$allocator@H@std@@@std@@V?$allocator@V?$vector@HV?$allocator@H@std@@@std@@@2@@std@@AEAAX_K$$QEAPEBV?$vector@HV?$allocator@H@std@@@1@1@Z
	DD	042H
xdata	ENDS
;	COMDAT xdata
xdata	SEGMENT
$ip2state$??$_Uninitialized_copy@PEBV?$vector@HV?$allocator@H@std@@@std@@PEBV12@V?$allocator@V?$vector@HV?$allocator@H@std@@@std@@@2@@std@@YAPEAV?$vector@HV?$allocator@H@std@@@0@PEBV10@0PEAV10@AEAV?$allocator@V?$vector@HV?$allocator@H@std@@@std@@@0@@Z DD 05a029204H
	DB	00H
xdata	ENDS
;	COMDAT xdata
xdata	SEGMENT
$stateUnwindMap$??$_Uninitialized_copy@PEBV?$vector@HV?$allocator@H@std@@@std@@PEBV12@V?$allocator@V?$vector@HV?$allocator@H@std@@@std@@@2@@std@@YAPEAV?$vector@HV?$allocator@H@std@@@0@PEBV10@0PEAV10@AEAV?$allocator@V?$vector@HV?$allocator@H@std@@@std@@@0@@Z DW 0a02H
	DD	imagerel ??1?$_Uninitialized_backout_al@V?$allocator@V?$vector@HV?$allocator@H@std@@@std@@@std@@@std@@QEAA@XZ
	DB	040H
xdata	ENDS
;	COMDAT xdata
xdata	SEGMENT
$cppxdata$??$_Uninitialized_copy@PEBV?$vector@HV?$allocator@H@std@@@std@@PEBV12@V?$allocator@V?$vector@HV?$allocator@H@std@@@std@@@2@@std@@YAPEAV?$vector@HV?$allocator@H@std@@@0@PEBV10@0PEAV10@AEAV?$allocator@V?$vector@HV?$allocator@H@std@@@std@@@0@@Z DB 028H
	DD	imagerel $stateUnwindMap$??$_Uninitialized_copy@PEBV?$vector@HV?$allocator@H@std@@@std@@PEBV12@V?$allocator@V?$vector@HV?$allocator@H@std@@@std@@@2@@std@@YAPEAV?$vector@HV?$allocator@H@std@@@0@PEBV10@0PEAV10@AEAV?$allocator@V?$vector@HV?$allocator@H@std@@@std@@@0@@Z
	DD	imagerel $ip2state$??$_Uninitialized_copy@PEBV?$vector@HV?$allocator@H@std@@@std@@PEBV12@V?$allocator@V?$vector@HV?$allocator@H@std@@@std@@@2@@std@@YAPEAV?$vector@HV?$allocator@H@std@@@0@PEBV10@0PEAV10@AEAV?$allocator@V?$vector@HV?$allocator@H@std@@@std@@@0@@Z
xdata	ENDS
;	COMDAT xdata
xdata	SEGMENT
$unwind$??$_Uninitialized_copy@PEBV?$vector@HV?$allocator@H@std@@@std@@PEBV12@V?$allocator@V?$vector@HV?$allocator@H@std@@@std@@@2@@std@@YAPEAV?$vector@HV?$allocator@H@std@@@0@PEBV10@0PEAV10@AEAV?$allocator@V?$vector@HV?$allocator@H@std@@@std@@@0@@Z DQ 0000c640f00061e19r ; 1.72316e-308
	DQ	0700b720f000b340fr		; 5.32621e+231
	DD	imagerel __GSHandlerCheck_EH4
	DD	imagerel $cppxdata$??$_Uninitialized_copy@PEBV?$vector@HV?$allocator@H@std@@@std@@PEBV12@V?$allocator@V?$vector@HV?$allocator@H@std@@@std@@@2@@std@@YAPEAV?$vector@HV?$allocator@H@std@@@0@PEBV10@0PEAV10@AEAV?$allocator@V?$vector@HV?$allocator@H@std@@@std@@@0@@Z
	DD	03aH
xdata	ENDS
;	COMDAT xdata
xdata	SEGMENT
$unwind$?dtor$8@?0???__Esafe_indices@threats@qns@@YAXXZ@4HA DQ 05002320600020601r ; 2.6336e+77
xdata	ENDS
;	COMDAT xdata
xdata	SEGMENT
$ip2state$??__Esafe_indices@threats@qns@@YAXXZ DQ 0bc04bc02bc008416r ; -1.40502e-19
	DQ	0b20cb20ab208b606r		; -1.33047e-67
	DD	05e10ca0eH
	DW	08214H
	DB	00H
xdata	ENDS
;	COMDAT xdata
xdata	SEGMENT
$stateUnwindMap$??__Esafe_indices@threats@qns@@YAXXZ DW 0a14H
	DD	imagerel ??1?$vector@HV?$allocator@H@std@@@std@@QEAA@XZ
	DW	03240H
	DD	imagerel ??1?$vector@HV?$allocator@H@std@@@std@@QEAA@XZ
	DW	03270H
	DD	imagerel ??1?$vector@HV?$allocator@H@std@@@std@@QEAA@XZ
	DW	032a0H
	DD	imagerel ??1?$vector@HV?$allocator@H@std@@@std@@QEAA@XZ
	DW	032d0H
	DD	imagerel ??1?$vector@HV?$allocator@H@std@@@std@@QEAA@XZ
	DW	0201H
	DB	03aH
	DD	imagerel ??1?$vector@HV?$allocator@H@std@@@std@@QEAA@XZ
	DW	0261H
	DB	03aH
	DD	imagerel ??1?$vector@HV?$allocator@H@std@@@std@@QEAA@XZ
	DD	02ed02c1H
	DD	imagerel ?dtor$8@?0???__Esafe_indices@threats@qns@@YAXXZ@4HA
	DB	032H
	DD	imagerel ??1?$_Tidy_guard@V?$vector@V?$vector@HV?$allocator@H@std@@@std@@V?$allocator@V?$vector@HV?$allocator@H@std@@@std@@@2@@std@@@std@@QEAA@XZ
	DW	0381H
	DB	03aH
	DD	imagerel ??1?$_Uninitialized_backout_al@V?$allocator@V?$vector@HV?$allocator@H@std@@@std@@@std@@@std@@QEAA@XZ
	DW	03a1H
xdata	ENDS
;	COMDAT xdata
xdata	SEGMENT
$cppxdata$??__Esafe_indices@threats@qns@@YAXXZ DB 028H
	DD	imagerel $stateUnwindMap$??__Esafe_indices@threats@qns@@YAXXZ
	DD	imagerel $ip2state$??__Esafe_indices@threats@qns@@YAXXZ
xdata	ENDS
;	COMDAT xdata
xdata	SEGMENT
$unwind$??__Esafe_indices@threats@qns@@YAXXZ DQ 00026741c00092a19r ; 6.2451e-308
	DQ	00024341c0025641cr		; 5.6193e-308
	DQ	0000050100022011cr		; 4.34924e-310
	DD	imagerel __GSHandlerCheck_EH4
	DD	imagerel $cppxdata$??__Esafe_indices@threats@qns@@YAXXZ
	DD	0102H
xdata	ENDS
;	COMDAT xdata
xdata	SEGMENT
$unwind$?not_threatened_rows@threats@qns@@YAAEBV?$vector@HV?$allocator@H@std@@@std@@_KH@Z DQ 00000420400011319r ; 3.58617e-310
	DD	imagerel __GSHandlerCheck
	DD	010H
xdata	ENDS
;	COMDAT xdata
xdata	SEGMENT
$chain$5$?do_solve@qns@@YAX_KAEAV?$vector@HV?$allocator@H@std@@@std@@H@Z DD 021H
	DD	imagerel $LN124@do_solve
	DD	imagerel $LN124@do_solve+108
	DD	imagerel $unwind$?do_solve@qns@@YAX_KAEAV?$vector@HV?$allocator@H@std@@@std@@H@Z
xdata	ENDS
;	COMDAT xdata
xdata	SEGMENT
$chain$4$?do_solve@qns@@YAX_KAEAV?$vector@HV?$allocator@H@std@@@std@@H@Z DD 021H
	DD	imagerel $LN124@do_solve+108
	DD	imagerel $LN124@do_solve+189
	DD	imagerel $chain$1$?do_solve@qns@@YAX_KAEAV?$vector@HV?$allocator@H@std@@@std@@H@Z
xdata	ENDS
;	COMDAT xdata
xdata	SEGMENT
$chain$3$?do_solve@qns@@YAX_KAEAV?$vector@HV?$allocator@H@std@@@std@@H@Z DQ 0000a640d00040d21r ; 1.44502e-308
	DD	0113408H
	DD	imagerel $LN124@do_solve+108
	DD	imagerel $LN124@do_solve+189
	DD	imagerel $chain$1$?do_solve@qns@@YAX_KAEAV?$vector@HV?$allocator@H@std@@@std@@H@Z
xdata	ENDS
;	COMDAT xdata
xdata	SEGMENT
$chain$1$?do_solve@qns@@YAX_KAEAV?$vector@HV?$allocator@H@std@@@std@@H@Z DQ 00008f40a00040a21r ; 1.24511e-308
	DD	09e405H
	DD	imagerel $LN124@do_solve
	DD	imagerel $LN124@do_solve+108
	DD	imagerel $unwind$?do_solve@qns@@YAX_KAEAV?$vector@HV?$allocator@H@std@@@std@@H@Z
xdata	ENDS
;	COMDAT xdata
xdata	SEGMENT
$unwind$?do_solve@qns@@YAX_KAEAV?$vector@HV?$allocator@H@std@@@std@@H@Z DQ 07003a20700031619r ; 3.81006e+231
	DD	05002H
	DD	imagerel __GSHandlerCheck
	DD	030H
xdata	ENDS
;	COMDAT xdata
xdata	SEGMENT
$unwind$?reserve@?$vector@NV?$allocator@N@std@@@std@@QEAAX_K@Z DQ 00000620400011319r ; 5.32451e-310
	DD	imagerel __GSHandlerCheck
	DD	028H
xdata	ENDS
;	COMDAT xdata
xdata	SEGMENT
$unwind$??1?$vector@NV?$allocator@N@std@@@std@@QEAA@XZ DQ 03002320600020601r ; 1.96423e-77
xdata	ENDS
;	COMDAT xdata
xdata	SEGMENT
$unwind$?_Xlength@?$vector@HV?$allocator@H@std@@@std@@CAXXZ DQ 00000420400010401r ; 3.58617e-310
xdata	ENDS
;	COMDAT xdata
xdata	SEGMENT
$unwind$?_Tidy@?$vector@HV?$allocator@H@std@@@std@@AEAAXXZ DQ 03002320600020601r ; 1.96423e-77
xdata	ENDS
;	COMDAT xdata
xdata	SEGMENT
$unwind$??1?$vector@HV?$allocator@H@std@@@std@@QEAA@XZ DQ 03002320600020601r ; 1.96423e-77
xdata	ENDS
;	COMDAT xdata
xdata	SEGMENT
$unwind$?allocate@?$allocator@H@std@@QEAAPEAH_K@Z DQ 00000420400010401r ; 3.58617e-310
xdata	ENDS
;	COMDAT xdata
xdata	SEGMENT
$unwind$?_Xlength@?$vector@V?$vector@HV?$allocator@H@std@@@std@@V?$allocator@V?$vector@HV?$allocator@H@std@@@std@@@2@@std@@CAXXZ DQ 00000420400010401r ; 3.58617e-310
xdata	ENDS
;	COMDAT xdata
xdata	SEGMENT
$unwind$?_Tidy@?$vector@V?$vector@HV?$allocator@H@std@@@std@@V?$allocator@V?$vector@HV?$allocator@H@std@@@std@@@2@@std@@AEAAXXZ DQ 03002320600020601r ; 1.96423e-77
xdata	ENDS
;	COMDAT xdata
xdata	SEGMENT
$unwind$?allocate@?$allocator@V?$vector@HV?$allocator@H@std@@@std@@@std@@QEAAPEAV?$vector@HV?$allocator@H@std@@@2@_K@Z DQ 00000420400010401r ; 3.58617e-310
xdata	ENDS
;	COMDAT xdata
xdata	SEGMENT
$unwind$?_Xlength@?$vector@NV?$allocator@N@std@@@std@@CAXXZ DQ 00000420400010401r ; 3.58617e-310
xdata	ENDS
;	COMDAT xdata
xdata	SEGMENT
$unwind$?_Tidy@?$vector@NV?$allocator@N@std@@@std@@AEAAXXZ DQ 03002320600020601r ; 1.96423e-77
xdata	ENDS
;	COMDAT xdata
xdata	SEGMENT
$unwind$?deallocate@?$allocator@H@std@@QEAAXQEAH_K@Z DQ 00000420400010401r ; 3.58617e-310
xdata	ENDS
;	COMDAT xdata
xdata	SEGMENT
$unwind$?deallocate@?$allocator@V?$vector@HV?$allocator@H@std@@@std@@@std@@QEAAXQEAV?$vector@HV?$allocator@H@std@@@2@_K@Z DQ 00000420400010401r ; 3.58617e-310
xdata	ENDS
;	COMDAT xdata
xdata	SEGMENT
$unwind$?deallocate@?$allocator@N@std@@QEAAXQEAN_K@Z DQ 00000420400010401r ; 3.58617e-310
xdata	ENDS
;	COMDAT xdata
xdata	SEGMENT
$unwind$?assign@?$_Char_traits@DH@std@@SAPEADQEAD_KD@Z DQ 03002320600020601r ; 1.96423e-77
xdata	ENDS
;	COMDAT xdata
xdata	SEGMENT
$ip2state$??$use_facet@V?$ctype@D@std@@@std@@YAAEBV?$ctype@D@0@AEBVlocale@0@@Z DQ 060003a04e6028e08r ; 2.71955e+154
	DB	02H
xdata	ENDS
;	COMDAT xdata
xdata	SEGMENT
$stateUnwindMap$??$use_facet@V?$ctype@D@std@@@std@@YAAEBV?$ctype@D@0@AEBVlocale@0@@Z DW 0a04H
	DD	imagerel ??1_Lockit@std@@QEAA@XZ
	DW	03250H
	DD	imagerel ??1?$unique_ptr@V_Facet_base@std@@U?$default_delete@V_Facet_base@std@@@2@@std@@QEAA@XZ
	DB	060H
xdata	ENDS
;	COMDAT xdata
xdata	SEGMENT
$cppxdata$??$use_facet@V?$ctype@D@std@@@std@@YAAEBV?$ctype@D@0@AEBVlocale@0@@Z DB 028H
	DD	imagerel $stateUnwindMap$??$use_facet@V?$ctype@D@std@@@std@@YAAEBV?$ctype@D@0@AEBVlocale@0@@Z
	DD	imagerel $ip2state$??$use_facet@V?$ctype@D@std@@@std@@YAAEBV?$ctype@D@0@AEBVlocale@0@@Z
xdata	ENDS
;	COMDAT xdata
xdata	SEGMENT
$unwind$??$use_facet@V?$ctype@D@std@@@std@@YAAEBV?$ctype@D@0@AEBVlocale@0@@Z DQ 0000d641400082319r ; 1.86224e-308
	DQ	0000b3414000c5414r		; 1.55803e-308
	DD	070107214H
	DD	imagerel __GSHandlerCheck_EH4
	DD	imagerel $cppxdata$??$use_facet@V?$ctype@D@std@@@std@@YAAEBV?$ctype@D@0@AEBVlocale@0@@Z
	DD	03aH
xdata	ENDS
;	COMDAT xdata
xdata	SEGMENT
$unwind$??$_Copy_memmove@PEAHPEAH@std@@YAPEAHPEAH00@Z DQ 00009340a00040a01r ; 1.27987e-308
	DD	07006320aH
xdata	ENDS
;	COMDAT xdata
xdata	SEGMENT
$unwind$??$destroy@V?$vector@HV?$allocator@H@std@@@std@@@?$_Default_allocator_traits@V?$allocator@V?$vector@HV?$allocator@H@std@@@std@@@std@@@std@@SAXAEAV?$allocator@V?$vector@HV?$allocator@H@std@@@std@@@1@QEAV?$vector@HV?$allocator@H@std@@@1@@Z DQ 03002320600020601r ; 1.96423e-77
xdata	ENDS
;	COMDAT xdata
xdata	SEGMENT
$unwind$?dtor$4@?0???$?6DU?$char_traits@D@std@@$07@std@@YAAEAV?$basic_ostream@DU?$char_traits@D@std@@@0@AEAV10@AEBV?$bitset@$07@0@@Z@4HA DQ 05002320600020601r ; 2.6336e+77
xdata	ENDS
;	COMDAT xdata
xdata	SEGMENT
$ip2state$??$?6DU?$char_traits@D@std@@$07@std@@YAAEAV?$basic_ostream@DU?$char_traits@D@std@@@0@AEAV10@AEBV?$bitset@$07@0@@Z DQ 06a023806de04d00er ; 4.4626e+202
	DQ	004cc0002bd083000r		; 1.47107e-285
xdata	ENDS
;	COMDAT xdata
xdata	SEGMENT
$stateUnwindMap$??$?6DU?$char_traits@D@std@@$07@std@@YAAEAV?$basic_ostream@DU?$char_traits@D@std@@@0@AEAV10@AEBV?$bitset@$07@0@@Z DW 0a08H
	DD	imagerel ??1locale@std@@QEAA@XZ
	DW	03240H
	DD	imagerel ??1_Lockit@std@@QEAA@XZ
	DW	03290H
	DD	imagerel ??1?$unique_ptr@V_Facet_base@std@@U?$default_delete@V_Facet_base@std@@@2@@std@@QEAA@XZ
	DW	09ea0H
	DD	imagerel ?dtor$4@?0???$?6DU?$char_traits@D@std@@$07@std@@YAAEAV?$basic_ostream@DU?$char_traits@D@std@@@0@AEAV10@AEBV?$bitset@$07@0@@Z@4HA
xdata	ENDS
;	COMDAT xdata
xdata	SEGMENT
$cppxdata$??$?6DU?$char_traits@D@std@@$07@std@@YAAEAV?$basic_ostream@DU?$char_traits@D@std@@@0@AEAV10@AEBV?$bitset@$07@0@@Z DB 028H
	DD	imagerel $stateUnwindMap$??$?6DU?$char_traits@D@std@@$07@std@@YAAEAV?$basic_ostream@DU?$char_traits@D@std@@@0@AEAV10@AEBV?$bitset@$07@0@@Z
	DD	imagerel $ip2state$??$?6DU?$char_traits@D@std@@$07@std@@YAAEAV?$basic_ostream@DU?$char_traits@D@std@@@0@AEAV10@AEBV?$bitset@$07@0@@Z
xdata	ENDS
;	COMDAT xdata
xdata	SEGMENT
$unwind$??$?6DU?$char_traits@D@std@@$07@std@@YAAEAV?$basic_ostream@DU?$char_traits@D@std@@@0@AEAV10@AEBV?$bitset@$07@0@@Z DQ 000146419000a2719r ; 2.83572e-308
	DQ	0f012b21900133419r		; -7.25635e+231
	DQ	0500b700cc00ee010r		; 3.97133e+77
	DD	imagerel __GSHandlerCheck_EH4
	DD	imagerel $cppxdata$??$?6DU?$char_traits@D@std@@$07@std@@YAAEAV?$basic_ostream@DU?$char_traits@D@std@@@0@AEAV10@AEBV?$bitset@$07@0@@Z
	DD	05aH
xdata	ENDS
;	COMDAT xdata
xdata	SEGMENT
$unwind$??$copy@V?$_Vector_const_iterator@V?$_Vector_val@U?$_Simple_types@H@std@@@std@@@std@@V?$_Vector_iterator@V?$_Vector_val@U?$_Simple_types@H@std@@@std@@@2@@std@@YA?AV?$_Vector_iterator@V?$_Vector_val@U?$_Simple_types@H@std@@@std@@@0@V?$_Vector_const_iterator@V?$_Vector_val@U?$_Simple_types@H@std@@@std@@@0@0V10@@Z DQ 00008640f00060f01r ; 1.16689e-308
	DQ	0700b320f0007340fr		; 5.2777e+231
xdata	ENDS
;	COMDAT xdata
xdata	SEGMENT
$unwind$??$_Reallocate@$0A@@?$vector@NV?$allocator@N@std@@@std@@AEAAXAEA_K@Z DQ 0000a340c00060c01r ; 1.41894e-308
	DQ	0500660077008320cr		; 3.23858e+77
xdata	ENDS
;	COMDAT xdata
xdata	SEGMENT
$unwind$??$_Get_size_of_n@$03@std@@YA_K_K@Z DQ 00000420400010401r ; 3.58617e-310
xdata	ENDS
;	COMDAT xdata
xdata	SEGMENT
$unwind$??$_Get_size_of_n@$0BI@@std@@YA_K_K@Z DQ 00000420400010401r ; 3.58617e-310
xdata	ENDS
;	COMDAT xdata
xdata	SEGMENT
$unwind$?_Change_array@?$vector@NV?$allocator@N@std@@@std@@AEAAXQEAN_K1@Z DQ 00009641400081401r ; 1.30597e-308
	DQ	00007341400085414r		; 1.00176e-308
	DD	070103214H
xdata	ENDS
;	COMDAT xdata
xdata	SEGMENT
$unwind$??$destroy_at@V?$vector@HV?$allocator@H@std@@@std@@@std@@YAXQEAV?$vector@HV?$allocator@H@std@@@0@@Z DQ 03002320600020601r ; 1.96423e-77
xdata	ENDS
;	COMDAT xdata
xdata	SEGMENT
$unwind$?dtor$0@?0???$to_string@DU?$char_traits@D@std@@V?$allocator@D@2@@?$bitset@$07@std@@QEBA?AV?$basic_string@DU?$char_traits@D@std@@V?$allocator@D@2@@1@DD@Z@4HA DQ 05002320600020601r ; 2.6336e+77
xdata	ENDS
;	COMDAT xdata
xdata	SEGMENT
$ip2state$??$to_string@DU?$char_traits@D@std@@V?$allocator@D@2@@?$bitset@$07@std@@QEBA?AV?$basic_string@DU?$char_traits@D@std@@V?$allocator@D@2@@1@DD@Z DB 00H
xdata	ENDS
;	COMDAT xdata
xdata	SEGMENT
$stateUnwindMap$??$to_string@DU?$char_traits@D@std@@V?$allocator@D@2@@?$bitset@$07@std@@QEBA?AV?$basic_string@DU?$char_traits@D@std@@V?$allocator@D@2@@1@DD@Z DW 0e02H
	DD	imagerel ?dtor$0@?0???$to_string@DU?$char_traits@D@std@@V?$allocator@D@2@@?$bitset@$07@std@@QEBA?AV?$basic_string@DU?$char_traits@D@std@@V?$allocator@D@2@@1@DD@Z@4HA
xdata	ENDS
;	COMDAT xdata
xdata	SEGMENT
$cppxdata$??$to_string@DU?$char_traits@D@std@@V?$allocator@D@2@@?$bitset@$07@std@@QEBA?AV?$basic_string@DU?$char_traits@D@std@@V?$allocator@D@2@@1@DD@Z DB 028H
	DD	imagerel $stateUnwindMap$??$to_string@DU?$char_traits@D@std@@V?$allocator@D@2@@?$bitset@$07@std@@QEBA?AV?$basic_string@DU?$char_traits@D@std@@V?$allocator@D@2@@1@DD@Z
	DD	imagerel $ip2state$??$to_string@DU?$char_traits@D@std@@V?$allocator@D@2@@?$bitset@$07@std@@QEBA?AV?$basic_string@DU?$char_traits@D@std@@V?$allocator@D@2@@1@DD@Z
xdata	ENDS
;	COMDAT xdata
xdata	SEGMENT
$unwind$??$to_string@DU?$char_traits@D@std@@V?$allocator@D@2@@?$bitset@$07@std@@QEBA?AV?$basic_string@DU?$char_traits@D@std@@V?$allocator@D@2@@1@DD@Z DQ 00000220400010411r ; 1.84783e-310
	DD	imagerel __CxxFrameHandler4
	DD	imagerel $cppxdata$??$to_string@DU?$char_traits@D@std@@V?$allocator@D@2@@?$bitset@$07@std@@QEBA?AV?$basic_string@DU?$char_traits@D@std@@V?$allocator@D@2@@1@DD@Z
xdata	ENDS
;	COMDAT xdata
xdata	SEGMENT
$unwind$??$_Copy_unchecked@PEBHPEBHPEAH@std@@YAPEAHPEBH0PEAH@Z DQ 00009340a00040a01r ; 1.27987e-308
	DD	07006320aH
xdata	ENDS
;	COMDAT xdata
xdata	SEGMENT
$unwind$??$_Allocate_at_least_helper@V?$allocator@N@std@@@std@@YAPEANAEAV?$allocator@N@0@AEA_K@Z DQ 00000420400010401r ; 3.58617e-310
xdata	ENDS
;	COMDAT xdata
xdata	SEGMENT
$unwind$??$_Uninitialized_move@PEANV?$allocator@N@std@@@std@@YAPEANQEAN0PEANAEAV?$allocator@N@0@@Z DQ 00009340a00040a01r ; 1.27987e-308
	DD	07006320aH
xdata	ENDS
;	COMDAT xdata
xdata	SEGMENT
$chain$7$??$_Emplace_reallocate@AEBN@?$vector@NV?$allocator@N@std@@@std@@AEAAPEANQEANAEBN@Z DQ 00004e40000080021r ; 6.80125e-309
	DQ	0000664000005c400r		; 8.88726e-309
	DD	0e3400H
	DD	imagerel $LN170@Emplace_re
	DD	imagerel $LN170@Emplace_re+70
	DD	imagerel $unwind$??$_Emplace_reallocate@AEBN@?$vector@NV?$allocator@N@std@@@std@@AEAAPEANQEANAEBN@Z
xdata	ENDS
;	COMDAT xdata
xdata	SEGMENT
$chain$6$??$_Emplace_reallocate@AEBN@?$vector@NV?$allocator@N@std@@@std@@AEAAPEANQEANAEBN@Z DD 021H
	DD	imagerel $LN170@Emplace_re
	DD	imagerel $LN170@Emplace_re+70
	DD	imagerel $unwind$??$_Emplace_reallocate@AEBN@?$vector@NV?$allocator@N@std@@@std@@AEAAPEANQEANAEBN@Z
xdata	ENDS
;	COMDAT xdata
xdata	SEGMENT
$chain$5$??$_Emplace_reallocate@AEBN@?$vector@NV?$allocator@N@std@@@std@@AEAAPEANQEANAEBN@Z DQ 00004e40000080021r ; 6.80125e-309
	DQ	0000664000005c400r		; 8.88726e-309
	DD	0e3400H
	DD	imagerel $LN170@Emplace_re
	DD	imagerel $LN170@Emplace_re+70
	DD	imagerel $unwind$??$_Emplace_reallocate@AEBN@?$vector@NV?$allocator@N@std@@@std@@AEAAPEANQEANAEBN@Z
xdata	ENDS
;	COMDAT xdata
xdata	SEGMENT
$chain$3$??$_Emplace_reallocate@AEBN@?$vector@NV?$allocator@N@std@@@std@@AEAAPEANQEANAEBN@Z DQ 00004e42800082821r ; 6.8021e-309
	DQ	00006640e0005c416r		; 8.88755e-309
	DD	0e3405H
	DD	imagerel $LN170@Emplace_re
	DD	imagerel $LN170@Emplace_re+70
	DD	imagerel $unwind$??$_Emplace_reallocate@AEBN@?$vector@NV?$allocator@N@std@@@std@@AEAAPEANQEANAEBN@Z
xdata	ENDS
;	COMDAT xdata
xdata	SEGMENT
$unwind$??$_Emplace_reallocate@AEBN@?$vector@NV?$allocator@N@std@@@std@@AEAAPEANQEANAEBN@Z DQ 0f007620b00050b01r ; -4.53781e+231
	DQ	0000050027003d005r		; 4.34636e-310
xdata	ENDS
;	COMDAT xdata
xdata	SEGMENT
$unwind$??_G?$vector@HV?$allocator@H@std@@@std@@QEAAPEAXI@Z DQ 03002320600020601r ; 1.96423e-77
xdata	ENDS
;	COMDAT xdata
xdata	SEGMENT
$unwind$?allocate@?$allocator@N@std@@QEAAPEAN_K@Z DQ 00000420400010401r ; 3.58617e-310
xdata	ENDS
;	COMDAT xdata
xdata	SEGMENT
$unwind$??$_Resize_and_overwrite@V<lambda_1>@?1???$to_string@DU?$char_traits@D@std@@V?$allocator@D@2@@?$bitset@$07@std@@QEBA?AV?$basic_string@DU?$char_traits@D@std@@V?$allocator@D@2@@3@DD@Z@@?$basic_string@DU?$char_traits@D@std@@V?$allocator@D@2@@std@@QEAAX_KV<lambda_1>@?1???$to_string@DU?$char_traits@D@std@@V?$allocator@D@2@@?$bitset@$07@1@QEBA?AV01@DD@Z@@Z DQ 00006340a00040a01r ; 8.62672e-309
	DD	07006320aH
xdata	ENDS
;	COMDAT xdata
xdata	SEGMENT
$unwind$??$_Copy_memmove@PEBHPEAH@std@@YAPEAHPEBH0PEAH@Z DQ 00009340a00040a01r ; 1.27987e-308
	DD	07006320aH
xdata	ENDS
;	COMDAT xdata
xdata	SEGMENT
$chain$3$??$_Sort_unchecked@PEANU?$less@X@std@@@std@@YAXPEAN0_JU?$less@X@0@@Z DD 021H
	DD	imagerel $LN147@Sort_unche
	DD	imagerel $LN147@Sort_unche+198
	DD	imagerel $unwind$??$_Sort_unchecked@PEANU?$less@X@std@@@std@@YAXPEAN0_JU?$less@X@0@@Z
xdata	ENDS
;	COMDAT xdata
xdata	SEGMENT
$chain$2$??$_Sort_unchecked@PEANU?$less@X@std@@@std@@YAXPEAN0_JU?$less@X@0@@Z DQ 00003680000020021r ; 4.73697e-309
	DD	imagerel $LN147@Sort_unche
	DD	imagerel $LN147@Sort_unche+198
	DD	imagerel $unwind$??$_Sort_unchecked@PEANU?$less@X@std@@@std@@YAXPEAN0_JU?$less@X@0@@Z
xdata	ENDS
;	COMDAT xdata
xdata	SEGMENT
$chain$1$??$_Sort_unchecked@PEANU?$less@X@std@@@std@@YAXPEAN0_JU?$less@X@0@@Z DD 021H
	DD	imagerel $LN147@Sort_unche
	DD	imagerel $LN147@Sort_unche+198
	DD	imagerel $unwind$??$_Sort_unchecked@PEANU?$less@X@std@@@std@@YAXPEAN0_JU?$less@X@0@@Z
xdata	ENDS
;	COMDAT xdata
xdata	SEGMENT
$chain$0$??$_Sort_unchecked@PEANU?$less@X@std@@@std@@YAXPEAN0_JU?$less@X@0@@Z DQ 00003680500020521r ; 4.73708e-309
	DD	imagerel $LN147@Sort_unche
	DD	imagerel $LN147@Sort_unche+198
	DD	imagerel $unwind$??$_Sort_unchecked@PEANU?$less@X@std@@@std@@YAXPEAN0_JU?$less@X@0@@Z
xdata	ENDS
;	COMDAT xdata
xdata	SEGMENT
$unwind$??$_Sort_unchecked@PEANU?$less@X@std@@@std@@YAXPEAN0_JU?$less@X@0@@Z DQ 0f009820d00070d01r ; -4.95021e+231
	DQ	0500360047005e007r		; 2.80435e+77
	DD	03002H
xdata	ENDS
;	COMDAT xdata
xdata	SEGMENT
$unwind$??$_Copy_memmove@PEANPEAN@std@@YAPEANPEAN00@Z DQ 00009340a00040a01r ; 1.27987e-308
	DD	07006320aH
xdata	ENDS
;	COMDAT xdata
xdata	SEGMENT
$unwind$??$_Get_size_of_n@$07@std@@YA_K_K@Z DQ 00000420400010401r ; 3.58617e-310
xdata	ENDS
;	COMDAT xdata
xdata	SEGMENT
$chain$4$??$_Reallocate_grow_by@V<lambda_1>@?4???$_Resize_and_overwrite@V<lambda_1>@?1???$to_string@DU?$char_traits@D@std@@V?$allocator@D@2@@?$bitset@$07@std@@QEBA?AV?$basic_string@DU?$char_traits@D@std@@V?$allocator@D@2@@3@DD@Z@@?$basic_string@DU?$char_traits@D@std@@V?$allocator@D@2@@std@@QEAAX_KV1?1???$to_string@DU?$char_traits@D@std@@V?$allocator@D@2@@?$bitset@$07@3@QEBA?AV23@DD@Z@@Z@$$V@?$basic_string@DU?$char_traits@D@std@@V?$allocator@D@2@@std@@AEAAAEAV01@_KV<lambda_1>@?4???$_Resize_and_overwrite@V<lambda_1>@?1???$to_string@DU?$char_traits@D@std@@V?$allocator@D@2@@?$bitset@$07@std@@QEBA?AV?$basic_string@DU?$char_traits@D@std@@V?$allocator@D@2@@3@DD@Z@@01@QEAAX0V2?1???$to_string@DU?$char_traits@D@std@@V?$allocator@D@2@@?$bitset@$07@1@QEBA?AV01@DD@Z@@Z@@Z DQ 00004f40000060021r ; 6.88817e-309
	DQ	0000c540000057400r		; 1.71444e-308
	DD	imagerel $LN125@Reallocate
	DD	imagerel $LN125@Reallocate+41
	DD	imagerel $unwind$??$_Reallocate_grow_by@V<lambda_1>@?4???$_Resize_and_overwrite@V<lambda_1>@?1???$to_string@DU?$char_traits@D@std@@V?$allocator@D@2@@?$bitset@$07@std@@QEBA?AV?$basic_string@DU?$char_traits@D@std@@V?$allocator@D@2@@3@DD@Z@@?$basic_string@DU?$char_traits@D@std@@V?$allocator@D@2@@std@@QEAAX_KV1?1???$to_string@DU?$char_traits@D@std@@V?$allocator@D@2@@?$bitset@$07@3@QEBA?AV23@DD@Z@@Z@$$V@?$basic_string@DU?$char_traits@D@std@@V?$allocator@D@2@@std@@AEAAAEAV01@_KV<lambda_1>@?4???$_Resize_and_overwrite@V<lambda_1>@?1???$to_string@DU?$char_traits@D@std@@V?$allocator@D@2@@?$bitset@$07@std@@QEBA?AV?$basic_string@DU?$char_traits@D@std@@V?$allocator@D@2@@3@DD@Z@@01@QEAAX0V2?1???$to_string@DU?$char_traits@D@std@@V?$allocator@D@2@@?$bitset@$07@1@QEBA?AV01@DD@Z@@Z@@Z
xdata	ENDS
;	COMDAT xdata
xdata	SEGMENT
$chain$3$??$_Reallocate_grow_by@V<lambda_1>@?4???$_Resize_and_overwrite@V<lambda_1>@?1???$to_string@DU?$char_traits@D@std@@V?$allocator@D@2@@?$bitset@$07@std@@QEBA?AV?$basic_string@DU?$char_traits@D@std@@V?$allocator@D@2@@3@DD@Z@@?$basic_string@DU?$char_traits@D@std@@V?$allocator@D@2@@std@@QEAAX_KV1?1???$to_string@DU?$char_traits@D@std@@V?$allocator@D@2@@?$bitset@$07@3@QEBA?AV23@DD@Z@@Z@$$V@?$basic_string@DU?$char_traits@D@std@@V?$allocator@D@2@@std@@AEAAAEAV01@_KV<lambda_1>@?4???$_Resize_and_overwrite@V<lambda_1>@?1???$to_string@DU?$char_traits@D@std@@V?$allocator@D@2@@?$bitset@$07@std@@QEBA?AV?$basic_string@DU?$char_traits@D@std@@V?$allocator@D@2@@3@DD@Z@@01@QEAAX0V2?1???$to_string@DU?$char_traits@D@std@@V?$allocator@D@2@@?$bitset@$07@1@QEBA?AV01@DD@Z@@Z@@Z DD 021H
	DD	imagerel $LN125@Reallocate
	DD	imagerel $LN125@Reallocate+41
	DD	imagerel $unwind$??$_Reallocate_grow_by@V<lambda_1>@?4???$_Resize_and_overwrite@V<lambda_1>@?1???$to_string@DU?$char_traits@D@std@@V?$allocator@D@2@@?$bitset@$07@std@@QEBA?AV?$basic_string@DU?$char_traits@D@std@@V?$allocator@D@2@@3@DD@Z@@?$basic_string@DU?$char_traits@D@std@@V?$allocator@D@2@@std@@QEAAX_KV1?1???$to_string@DU?$char_traits@D@std@@V?$allocator@D@2@@?$bitset@$07@3@QEBA?AV23@DD@Z@@Z@$$V@?$basic_string@DU?$char_traits@D@std@@V?$allocator@D@2@@std@@AEAAAEAV01@_KV<lambda_1>@?4???$_Resize_and_overwrite@V<lambda_1>@?1???$to_string@DU?$char_traits@D@std@@V?$allocator@D@2@@?$bitset@$07@std@@QEBA?AV?$basic_string@DU?$char_traits@D@std@@V?$allocator@D@2@@3@DD@Z@@01@QEAAX0V2?1???$to_string@DU?$char_traits@D@std@@V?$allocator@D@2@@?$bitset@$07@1@QEBA?AV01@DD@Z@@Z@@Z
xdata	ENDS
;	COMDAT xdata
xdata	SEGMENT
$chain$2$??$_Reallocate_grow_by@V<lambda_1>@?4???$_Resize_and_overwrite@V<lambda_1>@?1???$to_string@DU?$char_traits@D@std@@V?$allocator@D@2@@?$bitset@$07@std@@QEBA?AV?$basic_string@DU?$char_traits@D@std@@V?$allocator@D@2@@3@DD@Z@@?$basic_string@DU?$char_traits@D@std@@V?$allocator@D@2@@std@@QEAAX_KV1?1???$to_string@DU?$char_traits@D@std@@V?$allocator@D@2@@?$bitset@$07@3@QEBA?AV23@DD@Z@@Z@$$V@?$basic_string@DU?$char_traits@D@std@@V?$allocator@D@2@@std@@AEAAAEAV01@_KV<lambda_1>@?4???$_Resize_and_overwrite@V<lambda_1>@?1???$to_string@DU?$char_traits@D@std@@V?$allocator@D@2@@?$bitset@$07@std@@QEBA?AV?$basic_string@DU?$char_traits@D@std@@V?$allocator@D@2@@3@DD@Z@@01@QEAAX0V2?1???$to_string@DU?$char_traits@D@std@@V?$allocator@D@2@@?$bitset@$07@1@QEBA?AV01@DD@Z@@Z@@Z DQ 00004f41300061321r ; 6.88857e-309
	DQ	0000c54050005740er		; 1.71445e-308
	DD	imagerel $LN125@Reallocate
	DD	imagerel $LN125@Reallocate+41
	DD	imagerel $unwind$??$_Reallocate_grow_by@V<lambda_1>@?4???$_Resize_and_overwrite@V<lambda_1>@?1???$to_string@DU?$char_traits@D@std@@V?$allocator@D@2@@?$bitset@$07@std@@QEBA?AV?$basic_string@DU?$char_traits@D@std@@V?$allocator@D@2@@3@DD@Z@@?$basic_string@DU?$char_traits@D@std@@V?$allocator@D@2@@std@@QEAAX_KV1?1???$to_string@DU?$char_traits@D@std@@V?$allocator@D@2@@?$bitset@$07@3@QEBA?AV23@DD@Z@@Z@$$V@?$basic_string@DU?$char_traits@D@std@@V?$allocator@D@2@@std@@AEAAAEAV01@_KV<lambda_1>@?4???$_Resize_and_overwrite@V<lambda_1>@?1???$to_string@DU?$char_traits@D@std@@V?$allocator@D@2@@?$bitset@$07@std@@QEBA?AV?$basic_string@DU?$char_traits@D@std@@V?$allocator@D@2@@3@DD@Z@@01@QEAAX0V2?1???$to_string@DU?$char_traits@D@std@@V?$allocator@D@2@@?$bitset@$07@1@QEBA?AV01@DD@Z@@Z@@Z
xdata	ENDS
;	COMDAT xdata
xdata	SEGMENT
$unwind$??$_Reallocate_grow_by@V<lambda_1>@?4???$_Resize_and_overwrite@V<lambda_1>@?1???$to_string@DU?$char_traits@D@std@@V?$allocator@D@2@@?$bitset@$07@std@@QEBA?AV?$basic_string@DU?$char_traits@D@std@@V?$allocator@D@2@@3@DD@Z@@?$basic_string@DU?$char_traits@D@std@@V?$allocator@D@2@@std@@QEAAX_KV1?1???$to_string@DU?$char_traits@D@std@@V?$allocator@D@2@@?$bitset@$07@3@QEBA?AV23@DD@Z@@Z@$$V@?$basic_string@DU?$char_traits@D@std@@V?$allocator@D@2@@std@@AEAAAEAV01@_KV<lambda_1>@?4???$_Resize_and_overwrite@V<lambda_1>@?1???$to_string@DU?$char_traits@D@std@@V?$allocator@D@2@@?$bitset@$07@std@@QEBA?AV?$basic_string@DU?$char_traits@D@std@@V?$allocator@D@2@@3@DD@Z@@01@QEAAX0V2?1???$to_string@DU?$char_traits@D@std@@V?$allocator@D@2@@?$bitset@$07@1@QEBA?AV01@DD@Z@@Z@@Z DQ 0e005520900040901r ; -3.57326e+154
	DD	030026003H
xdata	ENDS
;	COMDAT xdata
xdata	SEGMENT
$chain$3$??$_Insertion_sort_unchecked@PEANU?$less@X@std@@@std@@YAPEANQEAN0U?$less@X@0@@Z DD 021H
	DD	imagerel $LN45@Insertion_
	DD	imagerel $LN45@Insertion_+25
	DD	imagerel $unwind$??$_Insertion_sort_unchecked@PEANU?$less@X@std@@@std@@YAPEANQEAN0U?$less@X@0@@Z
xdata	ENDS
;	COMDAT xdata
xdata	SEGMENT
$chain$2$??$_Insertion_sort_unchecked@PEANU?$less@X@std@@@std@@YAPEANQEAN0U?$less@X@0@@Z DD 021H
	DD	imagerel $LN45@Insertion_+25
	DD	imagerel $LN45@Insertion_+39
	DD	imagerel $chain$0$??$_Insertion_sort_unchecked@PEANU?$less@X@std@@@std@@YAPEANQEAN0U?$less@X@0@@Z
xdata	ENDS
;	COMDAT xdata
xdata	SEGMENT
$chain$1$??$_Insertion_sort_unchecked@PEANU?$less@X@std@@@std@@YAPEANQEAN0U?$less@X@0@@Z DQ 00002680500020521r ; 3.34641e-309
	DD	imagerel $LN45@Insertion_+25
	DD	imagerel $LN45@Insertion_+39
	DD	imagerel $chain$0$??$_Insertion_sort_unchecked@PEANU?$less@X@std@@@std@@YAPEANQEAN0U?$less@X@0@@Z
xdata	ENDS
;	COMDAT xdata
xdata	SEGMENT
$chain$0$??$_Insertion_sort_unchecked@PEANU?$less@X@std@@@std@@YAPEANQEAN0U?$less@X@0@@Z DQ 00009340500020521r ; 1.27986e-308
	DD	imagerel $LN45@Insertion_
	DD	imagerel $LN45@Insertion_+25
	DD	imagerel $unwind$??$_Insertion_sort_unchecked@PEANU?$less@X@std@@@std@@YAPEANQEAN0U?$less@X@0@@Z
xdata	ENDS
;	COMDAT xdata
xdata	SEGMENT
$unwind$??$_Insertion_sort_unchecked@PEANU?$less@X@std@@@std@@YAPEANQEAN0U?$less@X@0@@Z DQ 0000a640a00040a01r ; 1.44502e-308
	DD	07006520aH
xdata	ENDS
;	COMDAT xdata
xdata	SEGMENT
$chain$1$??$_Make_heap_unchecked@PEANU?$less@X@std@@@std@@YAXPEAN0U?$less@X@0@@Z DD 021H
	DD	imagerel $LN43@Make_heap_
	DD	imagerel $LN43@Make_heap_+36
	DD	imagerel $unwind$??$_Make_heap_unchecked@PEANU?$less@X@std@@@std@@YAXPEAN0U?$less@X@0@@Z
xdata	ENDS
;	COMDAT xdata
xdata	SEGMENT
$chain$0$??$_Make_heap_unchecked@PEANU?$less@X@std@@@std@@YAXPEAN0U?$less@X@0@@Z DQ 00000340400020421r ; 2.82565e-310
	DD	imagerel $LN43@Make_heap_
	DD	imagerel $LN43@Make_heap_+36
	DD	imagerel $unwind$??$_Make_heap_unchecked@PEANU?$less@X@std@@@std@@YAXPEAN0U?$less@X@0@@Z
xdata	ENDS
;	COMDAT xdata
xdata	SEGMENT
$unwind$??$_Make_heap_unchecked@PEANU?$less@X@std@@@std@@YAXPEAN0U?$less@X@0@@Z DQ 00000020400010401r ; 1.09495e-311
xdata	ENDS
;	COMDAT xdata
xdata	SEGMENT
$chain$2$??$_Sort_heap_unchecked@PEANU?$less@X@std@@@std@@YAXPEAN0U?$less@X@0@@Z DD 021H
	DD	imagerel $LN49@Sort_heap_
	DD	imagerel $LN49@Sort_heap_+27
	DD	imagerel $unwind$??$_Sort_heap_unchecked@PEANU?$less@X@std@@@std@@YAXPEAN0U?$less@X@0@@Z
xdata	ENDS
;	COMDAT xdata
xdata	SEGMENT
$chain$1$??$_Sort_heap_unchecked@PEANU?$less@X@std@@@std@@YAXPEAN0U?$less@X@0@@Z DQ 00000740d00040d21r ; 6.30424e-310
	DD	043405H
	DD	imagerel $LN49@Sort_heap_
	DD	imagerel $LN49@Sort_heap_+27
	DD	imagerel $unwind$??$_Sort_heap_unchecked@PEANU?$less@X@std@@@std@@YAXPEAN0U?$less@X@0@@Z
xdata	ENDS
;	COMDAT xdata
xdata	SEGMENT
$unwind$??$_Sort_heap_unchecked@PEANU?$less@X@std@@@std@@YAXPEAN0U?$less@X@0@@Z DQ 00000020400010401r ; 1.09495e-311
xdata	ENDS
;	COMDAT xdata
xdata	SEGMENT
$unwind$??$_Partition_by_median_guess_unchecked@PEANU?$less@X@std@@@std@@YA?AU?$pair@PEANPEAN@0@PEAN0U?$less@X@0@@Z DQ 0000b340d00060d01r ; 1.55801e-308
	DQ	060067007e009320dr		; 3.76049e+154
xdata	ENDS
;	COMDAT xdata
xdata	SEGMENT
$unwind$??$_Pop_heap_hole_by_index@PEANNU?$less@X@std@@@std@@YAXPEAN_J1$$QEANU?$less@X@0@@Z DQ 00005340600030601r ; 7.23596e-309
	DD	07006H
xdata	ENDS
;	COMDAT xdata
xdata	SEGMENT
$unwind$??$_Pop_heap_hole_unchecked@PEANNU?$less@X@std@@@std@@YAXPEAN00$$QEANU?$less@X@0@@Z DQ 00004340500020501r ; 5.84527e-309
xdata	ENDS
	ORG $+8
?solutions$initializer$@qns@@3P6AXXZEA DQ FLAT:??__Esolutions@qns@@YAXXZ ; qns::solutions$initializer$
?safe_indices$initializer$@threats@qns@@3P6AXXZEA DQ FLAT:??__Esafe_indices@threats@qns@@YAXXZ ; qns::threats::safe_indices$initializer$
END
